
chall.exe:     file format pei-i386


Disassembly of section .text:

00401000 <.text>:
  401000:	53                   	push   ebx
  401001:	56                   	push   esi
  401002:	57                   	push   edi
  401003:	68 08 21 40 00       	push   0x402108
  401008:	6a 65                	push   0x65
  40100a:	6a 00                	push   0x0
  40100c:	ff 15 0c 20 40 00    	call   DWORD PTR ds:0x40200c
  401012:	8b f0                	mov    esi,eax
  401014:	56                   	push   esi
  401015:	6a 00                	push   0x0
  401017:	ff 15 00 20 40 00    	call   DWORD PTR ds:0x402000
  40101d:	56                   	push   esi
  40101e:	6a 00                	push   0x0
  401020:	8b d8                	mov    ebx,eax
  401022:	ff 15 08 20 40 00    	call   DWORD PTR ds:0x402008
  401028:	6a 40                	push   0x40
  40102a:	68 00 10 00 00       	push   0x1000
  40102f:	53                   	push   ebx
  401030:	6a 00                	push   0x0
  401032:	8b f8                	mov    edi,eax
  401034:	ff 15 04 20 40 00    	call   DWORD PTR ds:0x402004
  40103a:	53                   	push   ebx
  40103b:	8b f0                	mov    esi,eax
  40103d:	57                   	push   edi
  40103e:	56                   	push   esi
  40103f:	e8 9e 0c 00 00       	call   0x401ce2
  401044:	83 c4 0c             	add    esp,0xc
  401047:	ff d6                	call   esi
  401049:	5f                   	pop    edi
  40104a:	5e                   	pop    esi
  40104b:	33 c0                	xor    eax,eax
  40104d:	5b                   	pop    ebx
  40104e:	c3                   	ret    
  40104f:	3b 0d 04 30 40 00    	cmp    ecx,DWORD PTR ds:0x403004
  401055:	f2 75 02             	bnd jne 0x40105a
  401058:	f2 c3                	bnd ret 
  40105a:	f2 e9 79 02 00 00    	bnd jmp 0x4012d9
  401060:	56                   	push   esi
  401061:	6a 01                	push   0x1
  401063:	e8 78 0b 00 00       	call   0x401be0
  401068:	e8 56 06 00 00       	call   0x4016c3
  40106d:	50                   	push   eax
  40106e:	e8 a3 0b 00 00       	call   0x401c16
  401073:	e8 44 06 00 00       	call   0x4016bc
  401078:	8b f0                	mov    esi,eax
  40107a:	e8 c7 0b 00 00       	call   0x401c46
  40107f:	6a 01                	push   0x1
  401081:	89 30                	mov    DWORD PTR [eax],esi
  401083:	e8 fa 03 00 00       	call   0x401482
  401088:	83 c4 0c             	add    esp,0xc
  40108b:	5e                   	pop    esi
  40108c:	84 c0                	test   al,al
  40108e:	74 73                	je     0x401103
  401090:	db e2                	fnclex 
  401092:	e8 73 08 00 00       	call   0x40190a
  401097:	68 36 19 40 00       	push   0x401936
  40109c:	e8 6e 05 00 00       	call   0x40160f
  4010a1:	e8 19 06 00 00       	call   0x4016bf
  4010a6:	50                   	push   eax
  4010a7:	e8 40 0b 00 00       	call   0x401bec
  4010ac:	59                   	pop    ecx
  4010ad:	59                   	pop    ecx
  4010ae:	85 c0                	test   eax,eax
  4010b0:	75 51                	jne    0x401103
  4010b2:	e8 12 06 00 00       	call   0x4016c9
  4010b7:	e8 69 06 00 00       	call   0x401725
  4010bc:	85 c0                	test   eax,eax
  4010be:	74 0b                	je     0x4010cb
  4010c0:	68 bc 16 40 00       	push   0x4016bc
  4010c5:	e8 1c 0b 00 00       	call   0x401be6
  4010ca:	59                   	pop    ecx
  4010cb:	e8 29 06 00 00       	call   0x4016f9
  4010d0:	e8 24 06 00 00       	call   0x4016f9
  4010d5:	e8 fe 05 00 00       	call   0x4016d8
  4010da:	e8 dd 05 00 00       	call   0x4016bc
  4010df:	50                   	push   eax
  4010e0:	e8 55 0b 00 00       	call   0x401c3a
  4010e5:	59                   	pop    ecx
  4010e6:	e8 ea 05 00 00       	call   0x4016d5
  4010eb:	84 c0                	test   al,al
  4010ed:	74 05                	je     0x4010f4
  4010ef:	e8 fe 0a 00 00       	call   0x401bf2
  4010f4:	e8 c3 05 00 00       	call   0x4016bc
  4010f9:	e8 5a 07 00 00       	call   0x401858
  4010fe:	85 c0                	test   eax,eax
  401100:	75 01                	jne    0x401103
  401102:	c3                   	ret    
  401103:	6a 07                	push   0x7
  401105:	e8 33 06 00 00       	call   0x40173d
  40110a:	cc                   	int3   
  40110b:	e8 f8 05 00 00       	call   0x401708
  401110:	33 c0                	xor    eax,eax
  401112:	c3                   	ret    
  401113:	e8 88 07 00 00       	call   0x4018a0
  401118:	e8 9f 05 00 00       	call   0x4016bc
  40111d:	50                   	push   eax
  40111e:	e8 1d 0b 00 00       	call   0x401c40
  401123:	59                   	pop    ecx
  401124:	c3                   	ret    
  401125:	6a 14                	push   0x14
  401127:	68 50 25 40 00       	push   0x402550
  40112c:	e8 3f 08 00 00       	call   0x401970
  401131:	6a 01                	push   0x1
  401133:	e8 11 03 00 00       	call   0x401449
  401138:	59                   	pop    ecx
  401139:	84 c0                	test   al,al
  40113b:	0f 84 50 01 00 00    	je     0x401291
  401141:	32 db                	xor    bl,bl
  401143:	88 5d e7             	mov    BYTE PTR [ebp-0x19],bl
  401146:	83 65 fc 00          	and    DWORD PTR [ebp-0x4],0x0
  40114a:	e8 c8 02 00 00       	call   0x401417
  40114f:	88 45 dc             	mov    BYTE PTR [ebp-0x24],al
  401152:	a1 34 33 40 00       	mov    eax,ds:0x403334
  401157:	33 c9                	xor    ecx,ecx
  401159:	41                   	inc    ecx
  40115a:	3b c1                	cmp    eax,ecx
  40115c:	0f 84 2f 01 00 00    	je     0x401291
  401162:	85 c0                	test   eax,eax
  401164:	75 49                	jne    0x4011af
  401166:	89 0d 34 33 40 00    	mov    DWORD PTR ds:0x403334,ecx
  40116c:	68 ec 20 40 00       	push   0x4020ec
  401171:	68 e0 20 40 00       	push   0x4020e0
  401176:	e8 89 0a 00 00       	call   0x401c04
  40117b:	59                   	pop    ecx
  40117c:	59                   	pop    ecx
  40117d:	85 c0                	test   eax,eax
  40117f:	74 11                	je     0x401192
  401181:	c7 45 fc fe ff ff ff 	mov    DWORD PTR [ebp-0x4],0xfffffffe
  401188:	b8 ff 00 00 00       	mov    eax,0xff
  40118d:	e9 ef 00 00 00       	jmp    0x401281
  401192:	68 dc 20 40 00       	push   0x4020dc
  401197:	68 d4 20 40 00       	push   0x4020d4
  40119c:	e8 5d 0a 00 00       	call   0x401bfe
  4011a1:	59                   	pop    ecx
  4011a2:	59                   	pop    ecx
  4011a3:	c7 05 34 33 40 00 02 	mov    DWORD PTR ds:0x403334,0x2
  4011aa:	00 00 00 
  4011ad:	eb 05                	jmp    0x4011b4
  4011af:	8a d9                	mov    bl,cl
  4011b1:	88 5d e7             	mov    BYTE PTR [ebp-0x19],bl
  4011b4:	ff 75 dc             	push   DWORD PTR [ebp-0x24]
  4011b7:	e8 e1 03 00 00       	call   0x40159d
  4011bc:	59                   	pop    ecx
  4011bd:	e8 6f 05 00 00       	call   0x401731
  4011c2:	8b f0                	mov    esi,eax
  4011c4:	33 ff                	xor    edi,edi
  4011c6:	39 3e                	cmp    DWORD PTR [esi],edi
  4011c8:	74 1b                	je     0x4011e5
  4011ca:	56                   	push   esi
  4011cb:	e8 39 03 00 00       	call   0x401509
  4011d0:	59                   	pop    ecx
  4011d1:	84 c0                	test   al,al
  4011d3:	74 10                	je     0x4011e5
  4011d5:	8b 36                	mov    esi,DWORD PTR [esi]
  4011d7:	57                   	push   edi
  4011d8:	6a 02                	push   0x2
  4011da:	57                   	push   edi
  4011db:	8b ce                	mov    ecx,esi
  4011dd:	ff 15 d0 20 40 00    	call   DWORD PTR ds:0x4020d0
  4011e3:	ff d6                	call   esi
  4011e5:	e8 4d 05 00 00       	call   0x401737
  4011ea:	8b f0                	mov    esi,eax
  4011ec:	39 3e                	cmp    DWORD PTR [esi],edi
  4011ee:	74 13                	je     0x401203
  4011f0:	56                   	push   esi
  4011f1:	e8 13 03 00 00       	call   0x401509
  4011f6:	59                   	pop    ecx
  4011f7:	84 c0                	test   al,al
  4011f9:	74 08                	je     0x401203
  4011fb:	ff 36                	push   DWORD PTR [esi]
  4011fd:	e8 32 0a 00 00       	call   0x401c34
  401202:	59                   	pop    ecx
  401203:	e8 f0 09 00 00       	call   0x401bf8
  401208:	8b f8                	mov    edi,eax
  40120a:	e8 13 0a 00 00       	call   0x401c22
  40120f:	8b 30                	mov    esi,DWORD PTR [eax]
  401211:	e8 06 0a 00 00       	call   0x401c1c
  401216:	57                   	push   edi
  401217:	56                   	push   esi
  401218:	ff 30                	push   DWORD PTR [eax]
  40121a:	e8 e1 fd ff ff       	call   0x401000
  40121f:	83 c4 0c             	add    esp,0xc
  401222:	8b f0                	mov    esi,eax
  401224:	e8 34 06 00 00       	call   0x40185d
  401229:	84 c0                	test   al,al
  40122b:	74 6b                	je     0x401298
  40122d:	84 db                	test   bl,bl
  40122f:	75 05                	jne    0x401236
  401231:	e8 f2 09 00 00       	call   0x401c28
  401236:	6a 00                	push   0x0
  401238:	6a 01                	push   0x1
  40123a:	e8 7b 03 00 00       	call   0x4015ba
  40123f:	59                   	pop    ecx
  401240:	59                   	pop    ecx
  401241:	c7 45 fc fe ff ff ff 	mov    DWORD PTR [ebp-0x4],0xfffffffe
  401248:	8b c6                	mov    eax,esi
  40124a:	eb 35                	jmp    0x401281
  40124c:	8b 4d ec             	mov    ecx,DWORD PTR [ebp-0x14]
  40124f:	8b 01                	mov    eax,DWORD PTR [ecx]
  401251:	8b 00                	mov    eax,DWORD PTR [eax]
  401253:	89 45 e0             	mov    DWORD PTR [ebp-0x20],eax
  401256:	51                   	push   ecx
  401257:	50                   	push   eax
  401258:	e8 7d 09 00 00       	call   0x401bda
  40125d:	59                   	pop    ecx
  40125e:	59                   	pop    ecx
  40125f:	c3                   	ret    
  401260:	8b 65 e8             	mov    esp,DWORD PTR [ebp-0x18]
  401263:	e8 f5 05 00 00       	call   0x40185d
  401268:	84 c0                	test   al,al
  40126a:	74 32                	je     0x40129e
  40126c:	80 7d e7 00          	cmp    BYTE PTR [ebp-0x19],0x0
  401270:	75 05                	jne    0x401277
  401272:	e8 b7 09 00 00       	call   0x401c2e
  401277:	c7 45 fc fe ff ff ff 	mov    DWORD PTR [ebp-0x4],0xfffffffe
  40127e:	8b 45 e0             	mov    eax,DWORD PTR [ebp-0x20]
  401281:	8b 4d f0             	mov    ecx,DWORD PTR [ebp-0x10]
  401284:	64 89 0d 00 00 00 00 	mov    DWORD PTR fs:0x0,ecx
  40128b:	59                   	pop    ecx
  40128c:	5f                   	pop    edi
  40128d:	5e                   	pop    esi
  40128e:	5b                   	pop    ebx
  40128f:	c9                   	leave  
  401290:	c3                   	ret    
  401291:	6a 07                	push   0x7
  401293:	e8 a5 04 00 00       	call   0x40173d
  401298:	56                   	push   esi
  401299:	e8 6c 09 00 00       	call   0x401c0a
  40129e:	ff 75 e0             	push   DWORD PTR [ebp-0x20]
  4012a1:	e8 6a 09 00 00       	call   0x401c10
  4012a6:	cc                   	int3   
  4012a7:	e8 c5 03 00 00       	call   0x401671
  4012ac:	e9 74 fe ff ff       	jmp    0x401125
  4012b1:	55                   	push   ebp
  4012b2:	8b ec                	mov    ebp,esp
  4012b4:	6a 00                	push   0x0
  4012b6:	ff 15 10 20 40 00    	call   DWORD PTR ds:0x402010
  4012bc:	ff 75 08             	push   DWORD PTR [ebp+0x8]
  4012bf:	ff 15 3c 20 40 00    	call   DWORD PTR ds:0x40203c
  4012c5:	68 09 04 00 c0       	push   0xc0000409
  4012ca:	ff 15 14 20 40 00    	call   DWORD PTR ds:0x402014
  4012d0:	50                   	push   eax
  4012d1:	ff 15 18 20 40 00    	call   DWORD PTR ds:0x402018
  4012d7:	5d                   	pop    ebp
  4012d8:	c3                   	ret    
  4012d9:	55                   	push   ebp
  4012da:	8b ec                	mov    ebp,esp
  4012dc:	81 ec 24 03 00 00    	sub    esp,0x324
  4012e2:	6a 17                	push   0x17
  4012e4:	ff 15 1c 20 40 00    	call   DWORD PTR ds:0x40201c
  4012ea:	85 c0                	test   eax,eax
  4012ec:	74 05                	je     0x4012f3
  4012ee:	6a 02                	push   0x2
  4012f0:	59                   	pop    ecx
  4012f1:	cd 29                	int    0x29
  4012f3:	a3 18 31 40 00       	mov    ds:0x403118,eax
  4012f8:	89 0d 14 31 40 00    	mov    DWORD PTR ds:0x403114,ecx
  4012fe:	89 15 10 31 40 00    	mov    DWORD PTR ds:0x403110,edx
  401304:	89 1d 0c 31 40 00    	mov    DWORD PTR ds:0x40310c,ebx
  40130a:	89 35 08 31 40 00    	mov    DWORD PTR ds:0x403108,esi
  401310:	89 3d 04 31 40 00    	mov    DWORD PTR ds:0x403104,edi
  401316:	66 8c 15 30 31 40 00 	data16 mov WORD PTR ds:0x403130,ss
  40131d:	66 8c 0d 24 31 40 00 	data16 mov WORD PTR ds:0x403124,cs
  401324:	66 8c 1d 00 31 40 00 	data16 mov WORD PTR ds:0x403100,ds
  40132b:	66 8c 05 fc 30 40 00 	data16 mov WORD PTR ds:0x4030fc,es
  401332:	66 8c 25 f8 30 40 00 	data16 mov WORD PTR ds:0x4030f8,fs
  401339:	66 8c 2d f4 30 40 00 	data16 mov WORD PTR ds:0x4030f4,gs
  401340:	9c                   	pushf  
  401341:	8f 05 28 31 40 00    	pop    DWORD PTR ds:0x403128
  401347:	8b 45 00             	mov    eax,DWORD PTR [ebp+0x0]
  40134a:	a3 1c 31 40 00       	mov    ds:0x40311c,eax
  40134f:	8b 45 04             	mov    eax,DWORD PTR [ebp+0x4]
  401352:	a3 20 31 40 00       	mov    ds:0x403120,eax
  401357:	8d 45 08             	lea    eax,[ebp+0x8]
  40135a:	a3 2c 31 40 00       	mov    ds:0x40312c,eax
  40135f:	8b 85 dc fc ff ff    	mov    eax,DWORD PTR [ebp-0x324]
  401365:	c7 05 68 30 40 00 01 	mov    DWORD PTR ds:0x403068,0x10001
  40136c:	00 01 00 
  40136f:	a1 20 31 40 00       	mov    eax,ds:0x403120
  401374:	a3 24 30 40 00       	mov    ds:0x403024,eax
  401379:	c7 05 18 30 40 00 09 	mov    DWORD PTR ds:0x403018,0xc0000409
  401380:	04 00 c0 
  401383:	c7 05 1c 30 40 00 01 	mov    DWORD PTR ds:0x40301c,0x1
  40138a:	00 00 00 
  40138d:	c7 05 28 30 40 00 01 	mov    DWORD PTR ds:0x403028,0x1
  401394:	00 00 00 
  401397:	6a 04                	push   0x4
  401399:	58                   	pop    eax
  40139a:	6b c0 00             	imul   eax,eax,0x0
  40139d:	c7 80 2c 30 40 00 02 	mov    DWORD PTR [eax+0x40302c],0x2
  4013a4:	00 00 00 
  4013a7:	6a 04                	push   0x4
  4013a9:	58                   	pop    eax
  4013aa:	6b c0 00             	imul   eax,eax,0x0
  4013ad:	8b 0d 04 30 40 00    	mov    ecx,DWORD PTR ds:0x403004
  4013b3:	89 4c 05 f8          	mov    DWORD PTR [ebp+eax*1-0x8],ecx
  4013b7:	6a 04                	push   0x4
  4013b9:	58                   	pop    eax
  4013ba:	c1 e0 00             	shl    eax,0x0
  4013bd:	8b 0d 00 30 40 00    	mov    ecx,DWORD PTR ds:0x403000
  4013c3:	89 4c 05 f8          	mov    DWORD PTR [ebp+eax*1-0x8],ecx
  4013c7:	68 00 21 40 00       	push   0x402100
  4013cc:	e8 e0 fe ff ff       	call   0x4012b1
  4013d1:	c9                   	leave  
  4013d2:	c3                   	ret    
  4013d3:	55                   	push   ebp
  4013d4:	8b ec                	mov    ebp,esp
  4013d6:	8b 45 08             	mov    eax,DWORD PTR [ebp+0x8]
  4013d9:	56                   	push   esi
  4013da:	8b 48 3c             	mov    ecx,DWORD PTR [eax+0x3c]
  4013dd:	03 c8                	add    ecx,eax
  4013df:	0f b7 41 14          	movzx  eax,WORD PTR [ecx+0x14]
  4013e3:	8d 51 18             	lea    edx,[ecx+0x18]
  4013e6:	03 d0                	add    edx,eax
  4013e8:	0f b7 41 06          	movzx  eax,WORD PTR [ecx+0x6]
  4013ec:	6b f0 28             	imul   esi,eax,0x28
  4013ef:	03 f2                	add    esi,edx
  4013f1:	3b d6                	cmp    edx,esi
  4013f3:	74 19                	je     0x40140e
  4013f5:	8b 4d 0c             	mov    ecx,DWORD PTR [ebp+0xc]
  4013f8:	3b 4a 0c             	cmp    ecx,DWORD PTR [edx+0xc]
  4013fb:	72 0a                	jb     0x401407
  4013fd:	8b 42 08             	mov    eax,DWORD PTR [edx+0x8]
  401400:	03 42 0c             	add    eax,DWORD PTR [edx+0xc]
  401403:	3b c8                	cmp    ecx,eax
  401405:	72 0c                	jb     0x401413
  401407:	83 c2 28             	add    edx,0x28
  40140a:	3b d6                	cmp    edx,esi
  40140c:	75 ea                	jne    0x4013f8
  40140e:	33 c0                	xor    eax,eax
  401410:	5e                   	pop    esi
  401411:	5d                   	pop    ebp
  401412:	c3                   	ret    
  401413:	8b c2                	mov    eax,edx
  401415:	eb f9                	jmp    0x401410
  401417:	56                   	push   esi
  401418:	e8 99 07 00 00       	call   0x401bb6
  40141d:	85 c0                	test   eax,eax
  40141f:	74 20                	je     0x401441
  401421:	64 a1 18 00 00 00    	mov    eax,fs:0x18
  401427:	be 38 33 40 00       	mov    esi,0x403338
  40142c:	8b 50 04             	mov    edx,DWORD PTR [eax+0x4]
  40142f:	eb 04                	jmp    0x401435
  401431:	3b d0                	cmp    edx,eax
  401433:	74 10                	je     0x401445
  401435:	33 c0                	xor    eax,eax
  401437:	8b ca                	mov    ecx,edx
  401439:	f0 0f b1 0e          	lock cmpxchg DWORD PTR [esi],ecx
  40143d:	85 c0                	test   eax,eax
  40143f:	75 f0                	jne    0x401431
  401441:	32 c0                	xor    al,al
  401443:	5e                   	pop    esi
  401444:	c3                   	ret    
  401445:	b0 01                	mov    al,0x1
  401447:	5e                   	pop    esi
  401448:	c3                   	ret    
  401449:	55                   	push   ebp
  40144a:	8b ec                	mov    ebp,esp
  40144c:	83 7d 08 00          	cmp    DWORD PTR [ebp+0x8],0x0
  401450:	75 07                	jne    0x401459
  401452:	c6 05 3c 33 40 00 01 	mov    BYTE PTR ds:0x40333c,0x1
  401459:	e8 87 05 00 00       	call   0x4019e5
  40145e:	e8 72 02 00 00       	call   0x4016d5
  401463:	84 c0                	test   al,al
  401465:	75 04                	jne    0x40146b
  401467:	32 c0                	xor    al,al
  401469:	5d                   	pop    ebp
  40146a:	c3                   	ret    
  40146b:	e8 65 02 00 00       	call   0x4016d5
  401470:	84 c0                	test   al,al
  401472:	75 0a                	jne    0x40147e
  401474:	6a 00                	push   0x0
  401476:	e8 5a 02 00 00       	call   0x4016d5
  40147b:	59                   	pop    ecx
  40147c:	eb e9                	jmp    0x401467
  40147e:	b0 01                	mov    al,0x1
  401480:	5d                   	pop    ebp
  401481:	c3                   	ret    
  401482:	55                   	push   ebp
  401483:	8b ec                	mov    ebp,esp
  401485:	80 3d 3d 33 40 00 00 	cmp    BYTE PTR ds:0x40333d,0x0
  40148c:	74 04                	je     0x401492
  40148e:	b0 01                	mov    al,0x1
  401490:	5d                   	pop    ebp
  401491:	c3                   	ret    
  401492:	56                   	push   esi
  401493:	8b 75 08             	mov    esi,DWORD PTR [ebp+0x8]
  401496:	85 f6                	test   esi,esi
  401498:	74 05                	je     0x40149f
  40149a:	83 fe 01             	cmp    esi,0x1
  40149d:	75 62                	jne    0x401501
  40149f:	e8 12 07 00 00       	call   0x401bb6
  4014a4:	85 c0                	test   eax,eax
  4014a6:	74 26                	je     0x4014ce
  4014a8:	85 f6                	test   esi,esi
  4014aa:	75 22                	jne    0x4014ce
  4014ac:	68 40 33 40 00       	push   0x403340
  4014b1:	e8 96 07 00 00       	call   0x401c4c
  4014b6:	59                   	pop    ecx
  4014b7:	85 c0                	test   eax,eax
  4014b9:	75 0f                	jne    0x4014ca
  4014bb:	68 4c 33 40 00       	push   0x40334c
  4014c0:	e8 87 07 00 00       	call   0x401c4c
  4014c5:	59                   	pop    ecx
  4014c6:	85 c0                	test   eax,eax
  4014c8:	74 2b                	je     0x4014f5
  4014ca:	32 c0                	xor    al,al
  4014cc:	eb 30                	jmp    0x4014fe
  4014ce:	83 c9 ff             	or     ecx,0xffffffff
  4014d1:	89 0d 40 33 40 00    	mov    DWORD PTR ds:0x403340,ecx
  4014d7:	89 0d 44 33 40 00    	mov    DWORD PTR ds:0x403344,ecx
  4014dd:	89 0d 48 33 40 00    	mov    DWORD PTR ds:0x403348,ecx
  4014e3:	89 0d 4c 33 40 00    	mov    DWORD PTR ds:0x40334c,ecx
  4014e9:	89 0d 50 33 40 00    	mov    DWORD PTR ds:0x403350,ecx
  4014ef:	89 0d 54 33 40 00    	mov    DWORD PTR ds:0x403354,ecx
  4014f5:	c6 05 3d 33 40 00 01 	mov    BYTE PTR ds:0x40333d,0x1
  4014fc:	b0 01                	mov    al,0x1
  4014fe:	5e                   	pop    esi
  4014ff:	5d                   	pop    ebp
  401500:	c3                   	ret    
  401501:	6a 05                	push   0x5
  401503:	e8 35 02 00 00       	call   0x40173d
  401508:	cc                   	int3   
  401509:	6a 08                	push   0x8
  40150b:	68 70 25 40 00       	push   0x402570
  401510:	e8 5b 04 00 00       	call   0x401970
  401515:	83 65 fc 00          	and    DWORD PTR [ebp-0x4],0x0
  401519:	b8 4d 5a 00 00       	mov    eax,0x5a4d
  40151e:	66 39 05 00 00 40 00 	cmp    WORD PTR ds:0x400000,ax
  401525:	75 5d                	jne    0x401584
  401527:	a1 3c 00 40 00       	mov    eax,ds:0x40003c
  40152c:	81 b8 00 00 40 00 50 	cmp    DWORD PTR [eax+0x400000],0x4550
  401533:	45 00 00 
  401536:	75 4c                	jne    0x401584
  401538:	b9 0b 01 00 00       	mov    ecx,0x10b
  40153d:	66 39 88 18 00 40 00 	cmp    WORD PTR [eax+0x400018],cx
  401544:	75 3e                	jne    0x401584
  401546:	8b 45 08             	mov    eax,DWORD PTR [ebp+0x8]
  401549:	b9 00 00 40 00       	mov    ecx,0x400000
  40154e:	2b c1                	sub    eax,ecx
  401550:	50                   	push   eax
  401551:	51                   	push   ecx
  401552:	e8 7c fe ff ff       	call   0x4013d3
  401557:	59                   	pop    ecx
  401558:	59                   	pop    ecx
  401559:	85 c0                	test   eax,eax
  40155b:	74 27                	je     0x401584
  40155d:	83 78 24 00          	cmp    DWORD PTR [eax+0x24],0x0
  401561:	7c 21                	jl     0x401584
  401563:	c7 45 fc fe ff ff ff 	mov    DWORD PTR [ebp-0x4],0xfffffffe
  40156a:	b0 01                	mov    al,0x1
  40156c:	eb 1f                	jmp    0x40158d
  40156e:	8b 45 ec             	mov    eax,DWORD PTR [ebp-0x14]
  401571:	8b 00                	mov    eax,DWORD PTR [eax]
  401573:	33 c9                	xor    ecx,ecx
  401575:	81 38 05 00 00 c0    	cmp    DWORD PTR [eax],0xc0000005
  40157b:	0f 94 c1             	sete   cl
  40157e:	8b c1                	mov    eax,ecx
  401580:	c3                   	ret    
  401581:	8b 65 e8             	mov    esp,DWORD PTR [ebp-0x18]
  401584:	c7 45 fc fe ff ff ff 	mov    DWORD PTR [ebp-0x4],0xfffffffe
  40158b:	32 c0                	xor    al,al
  40158d:	8b 4d f0             	mov    ecx,DWORD PTR [ebp-0x10]
  401590:	64 89 0d 00 00 00 00 	mov    DWORD PTR fs:0x0,ecx
  401597:	59                   	pop    ecx
  401598:	5f                   	pop    edi
  401599:	5e                   	pop    esi
  40159a:	5b                   	pop    ebx
  40159b:	c9                   	leave  
  40159c:	c3                   	ret    
  40159d:	55                   	push   ebp
  40159e:	8b ec                	mov    ebp,esp
  4015a0:	e8 11 06 00 00       	call   0x401bb6
  4015a5:	85 c0                	test   eax,eax
  4015a7:	74 0f                	je     0x4015b8
  4015a9:	80 7d 08 00          	cmp    BYTE PTR [ebp+0x8],0x0
  4015ad:	75 09                	jne    0x4015b8
  4015af:	33 c0                	xor    eax,eax
  4015b1:	b9 38 33 40 00       	mov    ecx,0x403338
  4015b6:	87 01                	xchg   DWORD PTR [ecx],eax
  4015b8:	5d                   	pop    ebp
  4015b9:	c3                   	ret    
  4015ba:	55                   	push   ebp
  4015bb:	8b ec                	mov    ebp,esp
  4015bd:	80 3d 3c 33 40 00 00 	cmp    BYTE PTR ds:0x40333c,0x0
  4015c4:	74 06                	je     0x4015cc
  4015c6:	80 7d 0c 00          	cmp    BYTE PTR [ebp+0xc],0x0
  4015ca:	75 12                	jne    0x4015de
  4015cc:	ff 75 08             	push   DWORD PTR [ebp+0x8]
  4015cf:	e8 01 01 00 00       	call   0x4016d5
  4015d4:	ff 75 08             	push   DWORD PTR [ebp+0x8]
  4015d7:	e8 f9 00 00 00       	call   0x4016d5
  4015dc:	59                   	pop    ecx
  4015dd:	59                   	pop    ecx
  4015de:	b0 01                	mov    al,0x1
  4015e0:	5d                   	pop    ebp
  4015e1:	c3                   	ret    
  4015e2:	55                   	push   ebp
  4015e3:	8b ec                	mov    ebp,esp
  4015e5:	83 3d 40 33 40 00 ff 	cmp    DWORD PTR ds:0x403340,0xffffffff
  4015ec:	ff 75 08             	push   DWORD PTR [ebp+0x8]
  4015ef:	75 07                	jne    0x4015f8
  4015f1:	e8 62 06 00 00       	call   0x401c58
  4015f6:	eb 0b                	jmp    0x401603
  4015f8:	68 40 33 40 00       	push   0x403340
  4015fd:	e8 50 06 00 00       	call   0x401c52
  401602:	59                   	pop    ecx
  401603:	f7 d8                	neg    eax
  401605:	59                   	pop    ecx
  401606:	1b c0                	sbb    eax,eax
  401608:	f7 d0                	not    eax
  40160a:	23 45 08             	and    eax,DWORD PTR [ebp+0x8]
  40160d:	5d                   	pop    ebp
  40160e:	c3                   	ret    
  40160f:	55                   	push   ebp
  401610:	8b ec                	mov    ebp,esp
  401612:	ff 75 08             	push   DWORD PTR [ebp+0x8]
  401615:	e8 c8 ff ff ff       	call   0x4015e2
  40161a:	f7 d8                	neg    eax
  40161c:	59                   	pop    ecx
  40161d:	1b c0                	sbb    eax,eax
  40161f:	f7 d8                	neg    eax
  401621:	48                   	dec    eax
  401622:	5d                   	pop    ebp
  401623:	c3                   	ret    
  401624:	55                   	push   ebp
  401625:	8b ec                	mov    ebp,esp
  401627:	83 ec 14             	sub    esp,0x14
  40162a:	83 65 f4 00          	and    DWORD PTR [ebp-0xc],0x0
  40162e:	8d 45 f4             	lea    eax,[ebp-0xc]
  401631:	83 65 f8 00          	and    DWORD PTR [ebp-0x8],0x0
  401635:	50                   	push   eax
  401636:	ff 15 34 20 40 00    	call   DWORD PTR ds:0x402034
  40163c:	8b 45 f8             	mov    eax,DWORD PTR [ebp-0x8]
  40163f:	33 45 f4             	xor    eax,DWORD PTR [ebp-0xc]
  401642:	89 45 fc             	mov    DWORD PTR [ebp-0x4],eax
  401645:	ff 15 38 20 40 00    	call   DWORD PTR ds:0x402038
  40164b:	31 45 fc             	xor    DWORD PTR [ebp-0x4],eax
  40164e:	ff 15 24 20 40 00    	call   DWORD PTR ds:0x402024
  401654:	31 45 fc             	xor    DWORD PTR [ebp-0x4],eax
  401657:	8d 45 ec             	lea    eax,[ebp-0x14]
  40165a:	50                   	push   eax
  40165b:	ff 15 20 20 40 00    	call   DWORD PTR ds:0x402020
  401661:	8b 45 f0             	mov    eax,DWORD PTR [ebp-0x10]
  401664:	8d 4d fc             	lea    ecx,[ebp-0x4]
  401667:	33 45 ec             	xor    eax,DWORD PTR [ebp-0x14]
  40166a:	33 45 fc             	xor    eax,DWORD PTR [ebp-0x4]
  40166d:	33 c1                	xor    eax,ecx
  40166f:	c9                   	leave  
  401670:	c3                   	ret    
  401671:	8b 0d 04 30 40 00    	mov    ecx,DWORD PTR ds:0x403004
  401677:	56                   	push   esi
  401678:	57                   	push   edi
  401679:	bf 4e e6 40 bb       	mov    edi,0xbb40e64e
  40167e:	be 00 00 ff ff       	mov    esi,0xffff0000
  401683:	3b cf                	cmp    ecx,edi
  401685:	74 04                	je     0x40168b
  401687:	85 ce                	test   esi,ecx
  401689:	75 26                	jne    0x4016b1
  40168b:	e8 94 ff ff ff       	call   0x401624
  401690:	8b c8                	mov    ecx,eax
  401692:	3b cf                	cmp    ecx,edi
  401694:	75 07                	jne    0x40169d
  401696:	b9 4f e6 40 bb       	mov    ecx,0xbb40e64f
  40169b:	eb 0e                	jmp    0x4016ab
  40169d:	85 ce                	test   esi,ecx
  40169f:	75 0a                	jne    0x4016ab
  4016a1:	0d 11 47 00 00       	or     eax,0x4711
  4016a6:	c1 e0 10             	shl    eax,0x10
  4016a9:	0b c8                	or     ecx,eax
  4016ab:	89 0d 04 30 40 00    	mov    DWORD PTR ds:0x403004,ecx
  4016b1:	f7 d1                	not    ecx
  4016b3:	5f                   	pop    edi
  4016b4:	89 0d 00 30 40 00    	mov    DWORD PTR ds:0x403000,ecx
  4016ba:	5e                   	pop    esi
  4016bb:	c3                   	ret    
  4016bc:	33 c0                	xor    eax,eax
  4016be:	c3                   	ret    
  4016bf:	33 c0                	xor    eax,eax
  4016c1:	40                   	inc    eax
  4016c2:	c3                   	ret    
  4016c3:	b8 00 40 00 00       	mov    eax,0x4000
  4016c8:	c3                   	ret    
  4016c9:	68 58 33 40 00       	push   0x403358
  4016ce:	ff 15 30 20 40 00    	call   DWORD PTR ds:0x402030
  4016d4:	c3                   	ret    
  4016d5:	b0 01                	mov    al,0x1
  4016d7:	c3                   	ret    
  4016d8:	68 00 00 03 00       	push   0x30000
  4016dd:	68 00 00 01 00       	push   0x10000
  4016e2:	6a 00                	push   0x0
  4016e4:	e8 75 05 00 00       	call   0x401c5e
  4016e9:	83 c4 0c             	add    esp,0xc
  4016ec:	85 c0                	test   eax,eax
  4016ee:	75 01                	jne    0x4016f1
  4016f0:	c3                   	ret    
  4016f1:	6a 07                	push   0x7
  4016f3:	e8 45 00 00 00       	call   0x40173d
  4016f8:	cc                   	int3   
  4016f9:	c2 00 00             	ret    0x0
  4016fc:	b8 60 33 40 00       	mov    eax,0x403360
  401701:	c3                   	ret    
  401702:	b8 68 33 40 00       	mov    eax,0x403368
  401707:	c3                   	ret    
  401708:	e8 ef ff ff ff       	call   0x4016fc
  40170d:	8b 48 04             	mov    ecx,DWORD PTR [eax+0x4]
  401710:	83 08 24             	or     DWORD PTR [eax],0x24
  401713:	89 48 04             	mov    DWORD PTR [eax+0x4],ecx
  401716:	e8 e7 ff ff ff       	call   0x401702
  40171b:	8b 48 04             	mov    ecx,DWORD PTR [eax+0x4]
  40171e:	83 08 02             	or     DWORD PTR [eax],0x2
  401721:	89 48 04             	mov    DWORD PTR [eax+0x4],ecx
  401724:	c3                   	ret    
  401725:	33 c0                	xor    eax,eax
  401727:	39 05 0c 30 40 00    	cmp    DWORD PTR ds:0x40300c,eax
  40172d:	0f 94 c0             	sete   al
  401730:	c3                   	ret    
  401731:	b8 84 33 40 00       	mov    eax,0x403384
  401736:	c3                   	ret    
  401737:	b8 80 33 40 00       	mov    eax,0x403380
  40173c:	c3                   	ret    
  40173d:	55                   	push   ebp
  40173e:	8b ec                	mov    ebp,esp
  401740:	81 ec 24 03 00 00    	sub    esp,0x324
  401746:	53                   	push   ebx
  401747:	6a 17                	push   0x17
  401749:	ff 15 1c 20 40 00    	call   DWORD PTR ds:0x40201c
  40174f:	85 c0                	test   eax,eax
  401751:	74 05                	je     0x401758
  401753:	8b 4d 08             	mov    ecx,DWORD PTR [ebp+0x8]
  401756:	cd 29                	int    0x29
  401758:	6a 03                	push   0x3
  40175a:	e8 a3 01 00 00       	call   0x401902
  40175f:	c7 04 24 cc 02 00 00 	mov    DWORD PTR [esp],0x2cc
  401766:	8d 85 dc fc ff ff    	lea    eax,[ebp-0x324]
  40176c:	6a 00                	push   0x0
  40176e:	50                   	push   eax
  40176f:	e8 5a 04 00 00       	call   0x401bce
  401774:	83 c4 0c             	add    esp,0xc
  401777:	89 85 8c fd ff ff    	mov    DWORD PTR [ebp-0x274],eax
  40177d:	89 8d 88 fd ff ff    	mov    DWORD PTR [ebp-0x278],ecx
  401783:	89 95 84 fd ff ff    	mov    DWORD PTR [ebp-0x27c],edx
  401789:	89 9d 80 fd ff ff    	mov    DWORD PTR [ebp-0x280],ebx
  40178f:	89 b5 7c fd ff ff    	mov    DWORD PTR [ebp-0x284],esi
  401795:	89 bd 78 fd ff ff    	mov    DWORD PTR [ebp-0x288],edi
  40179b:	66 8c 95 a4 fd ff ff 	data16 mov WORD PTR [ebp-0x25c],ss
  4017a2:	66 8c 8d 98 fd ff ff 	data16 mov WORD PTR [ebp-0x268],cs
  4017a9:	66 8c 9d 74 fd ff ff 	data16 mov WORD PTR [ebp-0x28c],ds
  4017b0:	66 8c 85 70 fd ff ff 	data16 mov WORD PTR [ebp-0x290],es
  4017b7:	66 8c a5 6c fd ff ff 	data16 mov WORD PTR [ebp-0x294],fs
  4017be:	66 8c ad 68 fd ff ff 	data16 mov WORD PTR [ebp-0x298],gs
  4017c5:	9c                   	pushf  
  4017c6:	8f 85 9c fd ff ff    	pop    DWORD PTR [ebp-0x264]
  4017cc:	8b 45 04             	mov    eax,DWORD PTR [ebp+0x4]
  4017cf:	89 85 94 fd ff ff    	mov    DWORD PTR [ebp-0x26c],eax
  4017d5:	8d 45 04             	lea    eax,[ebp+0x4]
  4017d8:	89 85 a0 fd ff ff    	mov    DWORD PTR [ebp-0x260],eax
  4017de:	c7 85 dc fc ff ff 01 	mov    DWORD PTR [ebp-0x324],0x10001
  4017e5:	00 01 00 
  4017e8:	8b 40 fc             	mov    eax,DWORD PTR [eax-0x4]
  4017eb:	6a 50                	push   0x50
  4017ed:	89 85 90 fd ff ff    	mov    DWORD PTR [ebp-0x270],eax
  4017f3:	8d 45 a8             	lea    eax,[ebp-0x58]
  4017f6:	6a 00                	push   0x0
  4017f8:	50                   	push   eax
  4017f9:	e8 d0 03 00 00       	call   0x401bce
  4017fe:	8b 45 04             	mov    eax,DWORD PTR [ebp+0x4]
  401801:	83 c4 0c             	add    esp,0xc
  401804:	c7 45 a8 15 00 00 40 	mov    DWORD PTR [ebp-0x58],0x40000015
  40180b:	c7 45 ac 01 00 00 00 	mov    DWORD PTR [ebp-0x54],0x1
  401812:	89 45 b4             	mov    DWORD PTR [ebp-0x4c],eax
  401815:	ff 15 2c 20 40 00    	call   DWORD PTR ds:0x40202c
  40181b:	6a 00                	push   0x0
  40181d:	8d 58 ff             	lea    ebx,[eax-0x1]
  401820:	f7 db                	neg    ebx
  401822:	8d 45 a8             	lea    eax,[ebp-0x58]
  401825:	89 45 f8             	mov    DWORD PTR [ebp-0x8],eax
  401828:	8d 85 dc fc ff ff    	lea    eax,[ebp-0x324]
  40182e:	1a db                	sbb    bl,bl
  401830:	89 45 fc             	mov    DWORD PTR [ebp-0x4],eax
  401833:	fe c3                	inc    bl
  401835:	ff 15 10 20 40 00    	call   DWORD PTR ds:0x402010
  40183b:	8d 45 f8             	lea    eax,[ebp-0x8]
  40183e:	50                   	push   eax
  40183f:	ff 15 3c 20 40 00    	call   DWORD PTR ds:0x40203c
  401845:	85 c0                	test   eax,eax
  401847:	75 0c                	jne    0x401855
  401849:	84 db                	test   bl,bl
  40184b:	75 08                	jne    0x401855
  40184d:	6a 03                	push   0x3
  40184f:	e8 ae 00 00 00       	call   0x401902
  401854:	59                   	pop    ecx
  401855:	5b                   	pop    ebx
  401856:	c9                   	leave  
  401857:	c3                   	ret    
  401858:	e9 5f fe ff ff       	jmp    0x4016bc
  40185d:	6a 00                	push   0x0
  40185f:	ff 15 28 20 40 00    	call   DWORD PTR ds:0x402028
  401865:	85 c0                	test   eax,eax
  401867:	74 34                	je     0x40189d
  401869:	b9 4d 5a 00 00       	mov    ecx,0x5a4d
  40186e:	66 39 08             	cmp    WORD PTR [eax],cx
  401871:	75 2a                	jne    0x40189d
  401873:	8b 48 3c             	mov    ecx,DWORD PTR [eax+0x3c]
  401876:	03 c8                	add    ecx,eax
  401878:	81 39 50 45 00 00    	cmp    DWORD PTR [ecx],0x4550
  40187e:	75 1d                	jne    0x40189d
  401880:	b8 0b 01 00 00       	mov    eax,0x10b
  401885:	66 39 41 18          	cmp    WORD PTR [ecx+0x18],ax
  401889:	75 12                	jne    0x40189d
  40188b:	83 79 74 0e          	cmp    DWORD PTR [ecx+0x74],0xe
  40188f:	76 0c                	jbe    0x40189d
  401891:	83 b9 e8 00 00 00 00 	cmp    DWORD PTR [ecx+0xe8],0x0
  401898:	74 03                	je     0x40189d
  40189a:	b0 01                	mov    al,0x1
  40189c:	c3                   	ret    
  40189d:	32 c0                	xor    al,al
  40189f:	c3                   	ret    
  4018a0:	68 ac 18 40 00       	push   0x4018ac
  4018a5:	ff 15 10 20 40 00    	call   DWORD PTR ds:0x402010
  4018ab:	c3                   	ret    
  4018ac:	55                   	push   ebp
  4018ad:	8b ec                	mov    ebp,esp
  4018af:	56                   	push   esi
  4018b0:	57                   	push   edi
  4018b1:	8b 7d 08             	mov    edi,DWORD PTR [ebp+0x8]
  4018b4:	8b 37                	mov    esi,DWORD PTR [edi]
  4018b6:	81 3e 63 73 6d e0    	cmp    DWORD PTR [esi],0xe06d7363
  4018bc:	75 25                	jne    0x4018e3
  4018be:	83 7e 10 03          	cmp    DWORD PTR [esi+0x10],0x3
  4018c2:	75 1f                	jne    0x4018e3
  4018c4:	8b 46 14             	mov    eax,DWORD PTR [esi+0x14]
  4018c7:	3d 20 05 93 19       	cmp    eax,0x19930520
  4018cc:	74 1d                	je     0x4018eb
  4018ce:	3d 21 05 93 19       	cmp    eax,0x19930521
  4018d3:	74 16                	je     0x4018eb
  4018d5:	3d 22 05 93 19       	cmp    eax,0x19930522
  4018da:	74 0f                	je     0x4018eb
  4018dc:	3d 00 40 99 01       	cmp    eax,0x1994000
  4018e1:	74 08                	je     0x4018eb
  4018e3:	5f                   	pop    edi
  4018e4:	33 c0                	xor    eax,eax
  4018e6:	5e                   	pop    esi
  4018e7:	5d                   	pop    ebp
  4018e8:	c2 04 00             	ret    0x4
  4018eb:	e8 d2 02 00 00       	call   0x401bc2
  4018f0:	89 30                	mov    DWORD PTR [eax],esi
  4018f2:	8b 77 04             	mov    esi,DWORD PTR [edi+0x4]
  4018f5:	e8 ce 02 00 00       	call   0x401bc8
  4018fa:	89 30                	mov    DWORD PTR [eax],esi
  4018fc:	e8 63 03 00 00       	call   0x401c64
  401901:	cc                   	int3   
  401902:	83 25 70 33 40 00 00 	and    DWORD PTR ds:0x403370,0x0
  401909:	c3                   	ret    
  40190a:	53                   	push   ebx
  40190b:	56                   	push   esi
  40190c:	be 40 25 40 00       	mov    esi,0x402540
  401911:	bb 40 25 40 00       	mov    ebx,0x402540
  401916:	3b f3                	cmp    esi,ebx
  401918:	73 19                	jae    0x401933
  40191a:	57                   	push   edi
  40191b:	8b 3e                	mov    edi,DWORD PTR [esi]
  40191d:	85 ff                	test   edi,edi
  40191f:	74 0a                	je     0x40192b
  401921:	8b cf                	mov    ecx,edi
  401923:	ff 15 d0 20 40 00    	call   DWORD PTR ds:0x4020d0
  401929:	ff d7                	call   edi
  40192b:	83 c6 04             	add    esi,0x4
  40192e:	3b f3                	cmp    esi,ebx
  401930:	72 e9                	jb     0x40191b
  401932:	5f                   	pop    edi
  401933:	5e                   	pop    esi
  401934:	5b                   	pop    ebx
  401935:	c3                   	ret    
  401936:	53                   	push   ebx
  401937:	56                   	push   esi
  401938:	be 48 25 40 00       	mov    esi,0x402548
  40193d:	bb 48 25 40 00       	mov    ebx,0x402548
  401942:	3b f3                	cmp    esi,ebx
  401944:	73 19                	jae    0x40195f
  401946:	57                   	push   edi
  401947:	8b 3e                	mov    edi,DWORD PTR [esi]
  401949:	85 ff                	test   edi,edi
  40194b:	74 0a                	je     0x401957
  40194d:	8b cf                	mov    ecx,edi
  40194f:	ff 15 d0 20 40 00    	call   DWORD PTR ds:0x4020d0
  401955:	ff d7                	call   edi
  401957:	83 c6 04             	add    esi,0x4
  40195a:	3b f3                	cmp    esi,ebx
  40195c:	72 e9                	jb     0x401947
  40195e:	5f                   	pop    edi
  40195f:	5e                   	pop    esi
  401960:	5b                   	pop    ebx
  401961:	c3                   	ret    
  401962:	cc                   	int3   
  401963:	cc                   	int3   
  401964:	cc                   	int3   
  401965:	cc                   	int3   
  401966:	cc                   	int3   
  401967:	cc                   	int3   
  401968:	cc                   	int3   
  401969:	cc                   	int3   
  40196a:	cc                   	int3   
  40196b:	cc                   	int3   
  40196c:	cc                   	int3   
  40196d:	cc                   	int3   
  40196e:	cc                   	int3   
  40196f:	cc                   	int3   
  401970:	68 b6 19 40 00       	push   0x4019b6
  401975:	64 ff 35 00 00 00 00 	push   DWORD PTR fs:0x0
  40197c:	8b 44 24 10          	mov    eax,DWORD PTR [esp+0x10]
  401980:	89 6c 24 10          	mov    DWORD PTR [esp+0x10],ebp
  401984:	8d 6c 24 10          	lea    ebp,[esp+0x10]
  401988:	2b e0                	sub    esp,eax
  40198a:	53                   	push   ebx
  40198b:	56                   	push   esi
  40198c:	57                   	push   edi
  40198d:	a1 04 30 40 00       	mov    eax,ds:0x403004
  401992:	31 45 fc             	xor    DWORD PTR [ebp-0x4],eax
  401995:	33 c5                	xor    eax,ebp
  401997:	50                   	push   eax
  401998:	89 65 e8             	mov    DWORD PTR [ebp-0x18],esp
  40199b:	ff 75 f8             	push   DWORD PTR [ebp-0x8]
  40199e:	8b 45 fc             	mov    eax,DWORD PTR [ebp-0x4]
  4019a1:	c7 45 fc fe ff ff ff 	mov    DWORD PTR [ebp-0x4],0xfffffffe
  4019a8:	89 45 f8             	mov    DWORD PTR [ebp-0x8],eax
  4019ab:	8d 45 f0             	lea    eax,[ebp-0x10]
  4019ae:	64 a3 00 00 00 00    	mov    fs:0x0,eax
  4019b4:	f2 c3                	bnd ret 
  4019b6:	55                   	push   ebp
  4019b7:	8b ec                	mov    ebp,esp
  4019b9:	56                   	push   esi
  4019ba:	8b 75 08             	mov    esi,DWORD PTR [ebp+0x8]
  4019bd:	ff 36                	push   DWORD PTR [esi]
  4019bf:	e8 a6 02 00 00       	call   0x401c6a
  4019c4:	ff 75 14             	push   DWORD PTR [ebp+0x14]
  4019c7:	89 06                	mov    DWORD PTR [esi],eax
  4019c9:	ff 75 10             	push   DWORD PTR [ebp+0x10]
  4019cc:	ff 75 0c             	push   DWORD PTR [ebp+0xc]
  4019cf:	56                   	push   esi
  4019d0:	68 4f 10 40 00       	push   0x40104f
  4019d5:	68 04 30 40 00       	push   0x403004
  4019da:	e8 f5 01 00 00       	call   0x401bd4
  4019df:	83 c4 1c             	add    esp,0x1c
  4019e2:	5e                   	pop    esi
  4019e3:	5d                   	pop    ebp
  4019e4:	c3                   	ret    
  4019e5:	55                   	push   ebp
  4019e6:	8b ec                	mov    ebp,esp
  4019e8:	83 25 78 33 40 00 00 	and    DWORD PTR ds:0x403378,0x0
  4019ef:	83 ec 24             	sub    esp,0x24
  4019f2:	83 0d 10 30 40 00 01 	or     DWORD PTR ds:0x403010,0x1
  4019f9:	6a 0a                	push   0xa
  4019fb:	ff 15 1c 20 40 00    	call   DWORD PTR ds:0x40201c
  401a01:	85 c0                	test   eax,eax
  401a03:	0f 84 a9 01 00 00    	je     0x401bb2
  401a09:	83 65 f0 00          	and    DWORD PTR [ebp-0x10],0x0
  401a0d:	33 c0                	xor    eax,eax
  401a0f:	53                   	push   ebx
  401a10:	56                   	push   esi
  401a11:	57                   	push   edi
  401a12:	33 c9                	xor    ecx,ecx
  401a14:	8d 7d dc             	lea    edi,[ebp-0x24]
  401a17:	53                   	push   ebx
  401a18:	0f a2                	cpuid  
  401a1a:	8b f3                	mov    esi,ebx
  401a1c:	5b                   	pop    ebx
  401a1d:	89 07                	mov    DWORD PTR [edi],eax
  401a1f:	89 77 04             	mov    DWORD PTR [edi+0x4],esi
  401a22:	89 4f 08             	mov    DWORD PTR [edi+0x8],ecx
  401a25:	33 c9                	xor    ecx,ecx
  401a27:	89 57 0c             	mov    DWORD PTR [edi+0xc],edx
  401a2a:	8b 45 dc             	mov    eax,DWORD PTR [ebp-0x24]
  401a2d:	8b 7d e4             	mov    edi,DWORD PTR [ebp-0x1c]
  401a30:	89 45 f4             	mov    DWORD PTR [ebp-0xc],eax
  401a33:	81 f7 6e 74 65 6c    	xor    edi,0x6c65746e
  401a39:	8b 45 e8             	mov    eax,DWORD PTR [ebp-0x18]
  401a3c:	35 69 6e 65 49       	xor    eax,0x49656e69
  401a41:	89 45 f8             	mov    DWORD PTR [ebp-0x8],eax
  401a44:	8b 45 e0             	mov    eax,DWORD PTR [ebp-0x20]
  401a47:	35 47 65 6e 75       	xor    eax,0x756e6547
  401a4c:	89 45 fc             	mov    DWORD PTR [ebp-0x4],eax
  401a4f:	33 c0                	xor    eax,eax
  401a51:	40                   	inc    eax
  401a52:	53                   	push   ebx
  401a53:	0f a2                	cpuid  
  401a55:	8b f3                	mov    esi,ebx
  401a57:	5b                   	pop    ebx
  401a58:	8d 5d dc             	lea    ebx,[ebp-0x24]
  401a5b:	89 03                	mov    DWORD PTR [ebx],eax
  401a5d:	8b 45 fc             	mov    eax,DWORD PTR [ebp-0x4]
  401a60:	89 73 04             	mov    DWORD PTR [ebx+0x4],esi
  401a63:	0b c7                	or     eax,edi
  401a65:	0b 45 f8             	or     eax,DWORD PTR [ebp-0x8]
  401a68:	89 4b 08             	mov    DWORD PTR [ebx+0x8],ecx
  401a6b:	89 53 0c             	mov    DWORD PTR [ebx+0xc],edx
  401a6e:	75 43                	jne    0x401ab3
  401a70:	8b 45 dc             	mov    eax,DWORD PTR [ebp-0x24]
  401a73:	25 f0 3f ff 0f       	and    eax,0xfff3ff0
  401a78:	3d c0 06 01 00       	cmp    eax,0x106c0
  401a7d:	74 23                	je     0x401aa2
  401a7f:	3d 60 06 02 00       	cmp    eax,0x20660
  401a84:	74 1c                	je     0x401aa2
  401a86:	3d 70 06 02 00       	cmp    eax,0x20670
  401a8b:	74 15                	je     0x401aa2
  401a8d:	3d 50 06 03 00       	cmp    eax,0x30650
  401a92:	74 0e                	je     0x401aa2
  401a94:	3d 60 06 03 00       	cmp    eax,0x30660
  401a99:	74 07                	je     0x401aa2
  401a9b:	3d 70 06 03 00       	cmp    eax,0x30670
  401aa0:	75 11                	jne    0x401ab3
  401aa2:	8b 3d 7c 33 40 00    	mov    edi,DWORD PTR ds:0x40337c
  401aa8:	83 cf 01             	or     edi,0x1
  401aab:	89 3d 7c 33 40 00    	mov    DWORD PTR ds:0x40337c,edi
  401ab1:	eb 06                	jmp    0x401ab9
  401ab3:	8b 3d 7c 33 40 00    	mov    edi,DWORD PTR ds:0x40337c
  401ab9:	8b 4d e4             	mov    ecx,DWORD PTR [ebp-0x1c]
  401abc:	6a 07                	push   0x7
  401abe:	58                   	pop    eax
  401abf:	89 4d fc             	mov    DWORD PTR [ebp-0x4],ecx
  401ac2:	39 45 f4             	cmp    DWORD PTR [ebp-0xc],eax
  401ac5:	7c 2f                	jl     0x401af6
  401ac7:	33 c9                	xor    ecx,ecx
  401ac9:	53                   	push   ebx
  401aca:	0f a2                	cpuid  
  401acc:	8b f3                	mov    esi,ebx
  401ace:	5b                   	pop    ebx
  401acf:	8d 5d dc             	lea    ebx,[ebp-0x24]
  401ad2:	89 03                	mov    DWORD PTR [ebx],eax
  401ad4:	89 73 04             	mov    DWORD PTR [ebx+0x4],esi
  401ad7:	89 4b 08             	mov    DWORD PTR [ebx+0x8],ecx
  401ada:	8b 4d fc             	mov    ecx,DWORD PTR [ebp-0x4]
  401add:	89 53 0c             	mov    DWORD PTR [ebx+0xc],edx
  401ae0:	8b 5d e0             	mov    ebx,DWORD PTR [ebp-0x20]
  401ae3:	f7 c3 00 02 00 00    	test   ebx,0x200
  401ae9:	74 0e                	je     0x401af9
  401aeb:	83 cf 02             	or     edi,0x2
  401aee:	89 3d 7c 33 40 00    	mov    DWORD PTR ds:0x40337c,edi
  401af4:	eb 03                	jmp    0x401af9
  401af6:	8b 5d f0             	mov    ebx,DWORD PTR [ebp-0x10]
  401af9:	a1 10 30 40 00       	mov    eax,ds:0x403010
  401afe:	83 c8 02             	or     eax,0x2
  401b01:	c7 05 78 33 40 00 01 	mov    DWORD PTR ds:0x403378,0x1
  401b08:	00 00 00 
  401b0b:	a3 10 30 40 00       	mov    ds:0x403010,eax
  401b10:	f7 c1 00 00 10 00    	test   ecx,0x100000
  401b16:	0f 84 93 00 00 00    	je     0x401baf
  401b1c:	83 c8 04             	or     eax,0x4
  401b1f:	c7 05 78 33 40 00 02 	mov    DWORD PTR ds:0x403378,0x2
  401b26:	00 00 00 
  401b29:	a3 10 30 40 00       	mov    ds:0x403010,eax
  401b2e:	f7 c1 00 00 00 08    	test   ecx,0x8000000
  401b34:	74 79                	je     0x401baf
  401b36:	f7 c1 00 00 00 10    	test   ecx,0x10000000
  401b3c:	74 71                	je     0x401baf
  401b3e:	33 c9                	xor    ecx,ecx
  401b40:	0f 01 d0             	xgetbv 
  401b43:	89 45 ec             	mov    DWORD PTR [ebp-0x14],eax
  401b46:	89 55 f0             	mov    DWORD PTR [ebp-0x10],edx
  401b49:	8b 45 ec             	mov    eax,DWORD PTR [ebp-0x14]
  401b4c:	8b 4d f0             	mov    ecx,DWORD PTR [ebp-0x10]
  401b4f:	6a 06                	push   0x6
  401b51:	5e                   	pop    esi
  401b52:	23 c6                	and    eax,esi
  401b54:	3b c6                	cmp    eax,esi
  401b56:	75 57                	jne    0x401baf
  401b58:	a1 10 30 40 00       	mov    eax,ds:0x403010
  401b5d:	83 c8 08             	or     eax,0x8
  401b60:	c7 05 78 33 40 00 03 	mov    DWORD PTR ds:0x403378,0x3
  401b67:	00 00 00 
  401b6a:	a3 10 30 40 00       	mov    ds:0x403010,eax
  401b6f:	f6 c3 20             	test   bl,0x20
  401b72:	74 3b                	je     0x401baf
  401b74:	83 c8 20             	or     eax,0x20
  401b77:	c7 05 78 33 40 00 05 	mov    DWORD PTR ds:0x403378,0x5
  401b7e:	00 00 00 
  401b81:	a3 10 30 40 00       	mov    ds:0x403010,eax
  401b86:	b8 00 00 03 d0       	mov    eax,0xd0030000
  401b8b:	23 d8                	and    ebx,eax
  401b8d:	3b d8                	cmp    ebx,eax
  401b8f:	75 1e                	jne    0x401baf
  401b91:	8b 45 ec             	mov    eax,DWORD PTR [ebp-0x14]
  401b94:	ba e0 00 00 00       	mov    edx,0xe0
  401b99:	8b 4d f0             	mov    ecx,DWORD PTR [ebp-0x10]
  401b9c:	23 c2                	and    eax,edx
  401b9e:	3b c2                	cmp    eax,edx
  401ba0:	75 0d                	jne    0x401baf
  401ba2:	83 0d 10 30 40 00 40 	or     DWORD PTR ds:0x403010,0x40
  401ba9:	89 35 78 33 40 00    	mov    DWORD PTR ds:0x403378,esi
  401baf:	5f                   	pop    edi
  401bb0:	5e                   	pop    esi
  401bb1:	5b                   	pop    ebx
  401bb2:	33 c0                	xor    eax,eax
  401bb4:	c9                   	leave  
  401bb5:	c3                   	ret    
  401bb6:	33 c0                	xor    eax,eax
  401bb8:	39 05 14 30 40 00    	cmp    DWORD PTR ds:0x403014,eax
  401bbe:	0f 95 c0             	setne  al
  401bc1:	c3                   	ret    
  401bc2:	ff 25 44 20 40 00    	jmp    DWORD PTR ds:0x402044
  401bc8:	ff 25 48 20 40 00    	jmp    DWORD PTR ds:0x402048
  401bce:	ff 25 4c 20 40 00    	jmp    DWORD PTR ds:0x40204c
  401bd4:	ff 25 50 20 40 00    	jmp    DWORD PTR ds:0x402050
  401bda:	ff 25 bc 20 40 00    	jmp    DWORD PTR ds:0x4020bc
  401be0:	ff 25 9c 20 40 00    	jmp    DWORD PTR ds:0x40209c
  401be6:	ff 25 6c 20 40 00    	jmp    DWORD PTR ds:0x40206c
  401bec:	ff 25 b8 20 40 00    	jmp    DWORD PTR ds:0x4020b8
  401bf2:	ff 25 b4 20 40 00    	jmp    DWORD PTR ds:0x4020b4
  401bf8:	ff 25 b0 20 40 00    	jmp    DWORD PTR ds:0x4020b0
  401bfe:	ff 25 ac 20 40 00    	jmp    DWORD PTR ds:0x4020ac
  401c04:	ff 25 a8 20 40 00    	jmp    DWORD PTR ds:0x4020a8
  401c0a:	ff 25 a4 20 40 00    	jmp    DWORD PTR ds:0x4020a4
  401c10:	ff 25 a0 20 40 00    	jmp    DWORD PTR ds:0x4020a0
  401c16:	ff 25 c8 20 40 00    	jmp    DWORD PTR ds:0x4020c8
  401c1c:	ff 25 98 20 40 00    	jmp    DWORD PTR ds:0x402098
  401c22:	ff 25 88 20 40 00    	jmp    DWORD PTR ds:0x402088
  401c28:	ff 25 8c 20 40 00    	jmp    DWORD PTR ds:0x40208c
  401c2e:	ff 25 94 20 40 00    	jmp    DWORD PTR ds:0x402094
  401c34:	ff 25 90 20 40 00    	jmp    DWORD PTR ds:0x402090
  401c3a:	ff 25 64 20 40 00    	jmp    DWORD PTR ds:0x402064
  401c40:	ff 25 5c 20 40 00    	jmp    DWORD PTR ds:0x40205c
  401c46:	ff 25 c4 20 40 00    	jmp    DWORD PTR ds:0x4020c4
  401c4c:	ff 25 74 20 40 00    	jmp    DWORD PTR ds:0x402074
  401c52:	ff 25 78 20 40 00    	jmp    DWORD PTR ds:0x402078
  401c58:	ff 25 7c 20 40 00    	jmp    DWORD PTR ds:0x40207c
  401c5e:	ff 25 80 20 40 00    	jmp    DWORD PTR ds:0x402080
  401c64:	ff 25 84 20 40 00    	jmp    DWORD PTR ds:0x402084
  401c6a:	55                   	push   ebp
  401c6b:	8b ec                	mov    ebp,esp
  401c6d:	51                   	push   ecx
  401c6e:	83 3d 78 33 40 00 01 	cmp    DWORD PTR ds:0x403378,0x1
  401c75:	7c 66                	jl     0x401cdd
  401c77:	81 7d 08 b4 02 00 c0 	cmp    DWORD PTR [ebp+0x8],0xc00002b4
  401c7e:	74 09                	je     0x401c89
  401c80:	81 7d 08 b5 02 00 c0 	cmp    DWORD PTR [ebp+0x8],0xc00002b5
  401c87:	75 54                	jne    0x401cdd
  401c89:	0f ae 5d fc          	stmxcsr DWORD PTR [ebp-0x4]
  401c8d:	8b 45 fc             	mov    eax,DWORD PTR [ebp-0x4]
  401c90:	83 f0 3f             	xor    eax,0x3f
  401c93:	a8 81                	test   al,0x81
  401c95:	74 3f                	je     0x401cd6
  401c97:	a9 04 02 00 00       	test   eax,0x204
  401c9c:	75 07                	jne    0x401ca5
  401c9e:	b8 8e 00 00 c0       	mov    eax,0xc000008e
  401ca3:	c9                   	leave  
  401ca4:	c3                   	ret    
  401ca5:	a9 02 01 00 00       	test   eax,0x102
  401caa:	74 2a                	je     0x401cd6
  401cac:	a9 08 04 00 00       	test   eax,0x408
  401cb1:	75 07                	jne    0x401cba
  401cb3:	b8 91 00 00 c0       	mov    eax,0xc0000091
  401cb8:	c9                   	leave  
  401cb9:	c3                   	ret    
  401cba:	a9 10 08 00 00       	test   eax,0x810
  401cbf:	75 07                	jne    0x401cc8
  401cc1:	b8 93 00 00 c0       	mov    eax,0xc0000093
  401cc6:	c9                   	leave  
  401cc7:	c3                   	ret    
  401cc8:	a9 20 10 00 00       	test   eax,0x1020
  401ccd:	75 0e                	jne    0x401cdd
  401ccf:	b8 8f 00 00 c0       	mov    eax,0xc000008f
  401cd4:	c9                   	leave  
  401cd5:	c3                   	ret    
  401cd6:	b8 90 00 00 c0       	mov    eax,0xc0000090
  401cdb:	c9                   	leave  
  401cdc:	c3                   	ret    
  401cdd:	8b 45 08             	mov    eax,DWORD PTR [ebp+0x8]
  401ce0:	c9                   	leave  
  401ce1:	c3                   	ret    
  401ce2:	ff 25 54 20 40 00    	jmp    DWORD PTR ds:0x402054

Disassembly of section .rdata:

00402000 <.rdata>:
  402000:	fc                   	cld    
  402001:	26 00 00             	add    BYTE PTR es:[eax],al
  402004:	0e                   	push   cs
  402005:	27                   	daa    
  402006:	00 00                	add    BYTE PTR [eax],al
  402008:	1e                   	push   ds
  402009:	27                   	daa    
  40200a:	00 00                	add    BYTE PTR [eax],al
  40200c:	2e 27                	cs daa 
  40200e:	00 00                	add    BYTE PTR [eax],al
  402010:	38 2a                	cmp    BYTE PTR [edx],ch
  402012:	00 00                	add    BYTE PTR [eax],al
  402014:	56                   	push   esi
  402015:	2a 00                	sub    al,BYTE PTR [eax]
  402017:	00 6a 2a             	add    BYTE PTR [edx+0x2a],ch
  40201a:	00 00                	add    BYTE PTR [eax],al
  40201c:	7e 2a                	jle    0x402048
  40201e:	00 00                	add    BYTE PTR [eax],al
  402020:	9a 2a 00 00 b4 2a 00 	call   0x2a:0xb400002a
  402027:	00 24 2b             	add    BYTE PTR [ebx+ebp*1],ah
  40202a:	00 00                	add    BYTE PTR [eax],al
  40202c:	10 2b                	adc    BYTE PTR [ebx],ch
  40202e:	00 00                	add    BYTE PTR [eax],al
  402030:	fa                   	cli    
  402031:	2a 00                	sub    al,BYTE PTR [eax]
  402033:	00 e0                	add    al,ah
  402035:	2a 00                	sub    al,BYTE PTR [eax]
  402037:	00 ca                	add    dl,cl
  402039:	2a 00                	sub    al,BYTE PTR [eax]
  40203b:	00 1c 2a             	add    BYTE PTR [edx+ebp*1],bl
  40203e:	00 00                	add    BYTE PTR [eax],al
  402040:	00 00                	add    BYTE PTR [eax],al
  402042:	00 00                	add    BYTE PTR [eax],al
  402044:	4c                   	dec    esp
  402045:	27                   	daa    
  402046:	00 00                	add    BYTE PTR [eax],al
  402048:	62 27                	bound  esp,QWORD PTR [edi]
  40204a:	00 00                	add    BYTE PTR [eax],al
  40204c:	80 27 00             	and    BYTE PTR [edi],0x0
  40204f:	00 8a 27 00 00 38    	add    BYTE PTR [edx+0x38000027],cl
  402055:	2b 00                	sub    eax,DWORD PTR [eax]
  402057:	00 00                	add    BYTE PTR [eax],al
  402059:	00 00                	add    BYTE PTR [eax],al
  40205b:	00 f6                	add    dh,dh
  40205d:	28 00                	sub    BYTE PTR [eax],al
  40205f:	00 00                	add    BYTE PTR [eax],al
  402061:	00 00                	add    BYTE PTR [eax],al
  402063:	00 e0                	add    al,ah
  402065:	28 00                	sub    BYTE PTR [eax],al
  402067:	00 00                	add    BYTE PTR [eax],al
  402069:	00 00                	add    BYTE PTR [eax],al
  40206b:	00 d8                	add    al,bl
  40206d:	27                   	daa    
  40206e:	00 00                	add    BYTE PTR [eax],al
  402070:	00 00                	add    BYTE PTR [eax],al
  402072:	00 00                	add    BYTE PTR [eax],al
  402074:	16                   	push   ss
  402075:	29 00                	sub    DWORD PTR [eax],eax
  402077:	00 32                	add    BYTE PTR [edx],dh
  402079:	29 00                	sub    DWORD PTR [eax],eax
  40207b:	00 4e 29             	add    BYTE PTR [esi+0x29],cl
  40207e:	00 00                	add    BYTE PTR [eax],al
  402080:	5c                   	pop    esp
  402081:	29 00                	sub    DWORD PTR [eax],eax
  402083:	00 6c 29 00          	add    BYTE PTR [ecx+ebp*1+0x0],ch
  402087:	00 90 28 00 00 9e    	add    BYTE PTR [eax-0x61ffffd8],dl
  40208d:	28 00                	sub    BYTE PTR [eax],al
  40208f:	00 b2 28 00 00 a8    	add    BYTE PTR [edx-0x57ffffd8],dh
  402095:	28 00                	sub    BYTE PTR [eax],al
  402097:	00 82 28 00 00 c8    	add    BYTE PTR [edx-0x37ffffd8],al
  40209d:	27                   	daa    
  40209e:	00 00                	add    BYTE PTR [eax],al
  4020a0:	6c                   	ins    BYTE PTR es:[edi],dx
  4020a1:	28 00                	sub    BYTE PTR [eax],al
  4020a3:	00 64 28 00          	add    BYTE PTR [eax+ebp*1+0x0],ah
  4020a7:	00 56 28             	add    BYTE PTR [esi+0x28],dl
  4020aa:	00 00                	add    BYTE PTR [eax],al
  4020ac:	4a                   	dec    edx
  4020ad:	28 00                	sub    BYTE PTR [eax],al
  4020af:	00 28                	add    BYTE PTR [eax],ch
  4020b1:	28 00                	sub    BYTE PTR [eax],al
  4020b3:	00 06                	add    BYTE PTR [esi],al
  4020b5:	28 00                	sub    BYTE PTR [eax],al
  4020b7:	00 ec                	add    ah,ch
  4020b9:	27                   	daa    
  4020ba:	00 00                	add    BYTE PTR [eax],al
  4020bc:	b6 27                	mov    dh,0x27
  4020be:	00 00                	add    BYTE PTR [eax],al
  4020c0:	00 00                	add    BYTE PTR [eax],al
  4020c2:	00 00                	add    BYTE PTR [eax],al
  4020c4:	06                   	push   es
  4020c5:	29 00                	sub    DWORD PTR [eax],eax
  4020c7:	00 74 28 00          	add    BYTE PTR [eax+ebp*1+0x0],dh
  4020cb:	00 00                	add    BYTE PTR [eax],al
  4020cd:	00 00                	add    BYTE PTR [eax],al
  4020cf:	00 f9                	add    cl,bh
  4020d1:	16                   	push   ss
  4020d2:	40                   	inc    eax
  4020d3:	00 00                	add    BYTE PTR [eax],al
  4020d5:	00 00                	add    BYTE PTR [eax],al
  4020d7:	00 13                	add    BYTE PTR [ebx],dl
  4020d9:	11 40 00             	adc    DWORD PTR [eax+0x0],eax
	...
  4020e4:	60                   	pusha  
  4020e5:	10 40 00             	adc    BYTE PTR [eax+0x0],al
  4020e8:	0b 11                	or     edx,DWORD PTR [ecx]
  4020ea:	40                   	inc    eax
	...
  4020ff:	00 18                	add    BYTE PTR [eax],bl
  402101:	30 40 00             	xor    BYTE PTR [eax+0x0],al
  402104:	68 30 40 00 62       	push   0x62004030
  402109:	00 69 00             	add    BYTE PTR [ecx+0x0],ch
  40210c:	6e                   	outs   dx,BYTE PTR ds:[esi]
  40210d:	00 30                	add    BYTE PTR [eax],dh
  40210f:	00 31                	add    BYTE PTR [ecx],dh
  402111:	00 00                	add    BYTE PTR [eax],al
  402113:	00 00                	add    BYTE PTR [eax],al
  402115:	00 00                	add    BYTE PTR [eax],al
  402117:	00 5d c7             	add    BYTE PTR [ebp-0x39],bl
  40211a:	6e                   	outs   dx,BYTE PTR ds:[esi]
  40211b:	60                   	pusha  
  40211c:	00 00                	add    BYTE PTR [eax],al
  40211e:	00 00                	add    BYTE PTR [eax],al
  402120:	02 00                	add    al,BYTE PTR [eax]
  402122:	00 00                	add    BYTE PTR [eax],al
  402124:	4f                   	dec    edi
  402125:	00 00                	add    BYTE PTR [eax],al
  402127:	00 84 22 00 00 84 14 	add    BYTE PTR [edx+eiz*1+0x14840000],al
  40212e:	00 00                	add    BYTE PTR [eax],al
  402130:	00 00                	add    BYTE PTR [eax],al
  402132:	00 00                	add    BYTE PTR [eax],al
  402134:	5d                   	pop    ebp
  402135:	c7                   	(bad)  
  402136:	6e                   	outs   dx,BYTE PTR ds:[esi]
  402137:	60                   	pusha  
  402138:	00 00                	add    BYTE PTR [eax],al
  40213a:	00 00                	add    BYTE PTR [eax],al
  40213c:	0c 00                	or     al,0x0
  40213e:	00 00                	add    BYTE PTR [eax],al
  402140:	14 00                	adc    al,0x0
  402142:	00 00                	add    BYTE PTR [eax],al
  402144:	d4 22                	aam    0x22
  402146:	00 00                	add    BYTE PTR [eax],al
  402148:	d4 14                	aam    0x14
  40214a:	00 00                	add    BYTE PTR [eax],al
  40214c:	00 00                	add    BYTE PTR [eax],al
  40214e:	00 00                	add    BYTE PTR [eax],al
  402150:	5d                   	pop    ebp
  402151:	c7                   	(bad)  
  402152:	6e                   	outs   dx,BYTE PTR ds:[esi]
  402153:	60                   	pusha  
  402154:	00 00                	add    BYTE PTR [eax],al
  402156:	00 00                	add    BYTE PTR [eax],al
  402158:	0d 00 00 00 54       	or     eax,0x54000000
  40215d:	02 00                	add    al,BYTE PTR [eax]
  40215f:	00 e8                	add    al,ch
  402161:	22 00                	and    al,BYTE PTR [eax]
  402163:	00 e8                	add    al,ch
  402165:	14 00                	adc    al,0x0
  402167:	00 00                	add    BYTE PTR [eax],al
  402169:	00 00                	add    BYTE PTR [eax],al
  40216b:	00 5d c7             	add    BYTE PTR [ebp-0x39],bl
  40216e:	6e                   	outs   dx,BYTE PTR ds:[esi]
  40216f:	60                   	pusha  
  402170:	00 00                	add    BYTE PTR [eax],al
  402172:	00 00                	add    BYTE PTR [eax],al
  402174:	0e                   	push   cs
	...
  402185:	00 00                	add    BYTE PTR [eax],al
  402187:	00 bc 00 00 00 00 00 	add    BYTE PTR [eax+eax*1+0x0],bh
	...
  4021c2:	00 00                	add    BYTE PTR [eax],al
  4021c4:	04 30                	add    al,0x30
  4021c6:	40                   	inc    eax
  4021c7:	00 80 22 40 00 01    	add    BYTE PTR [eax+0x1004022],al
  4021cd:	00 00                	add    BYTE PTR [eax],al
  4021cf:	00 d0                	add    al,dl
  4021d1:	20 40 00             	and    BYTE PTR [eax+0x0],al
	...
  4021e0:	00 01                	add    BYTE PTR [ecx],al
	...
  40223e:	00 00                	add    BYTE PTR [eax],al
  402240:	74 33                	je     0x402275
  402242:	40                   	inc    eax
	...
  40227f:	00 b6 19 00 00 52    	add    BYTE PTR [esi+0x52000019],dh
  402285:	53                   	push   ebx
  402286:	44                   	inc    esp
  402287:	53                   	push   ebx
  402288:	47                   	inc    edi
  402289:	76 66                	jbe    0x4022f1
  40228b:	65 32 ff             	gs xor bh,bh
  40228e:	75 44                	jne    0x4022d4
  402290:	84 2b                	test   BYTE PTR [ebx],ch
  402292:	5b                   	pop    ebx
  402293:	d3 ec                	shr    esp,cl
  402295:	fc                   	cld    
  402296:	1e                   	push   ds
  402297:	0e                   	push   cs
  402298:	01 00                	add    DWORD PTR [eax],eax
  40229a:	00 00                	add    BYTE PTR [eax],al
  40229c:	46                   	inc    esi
  40229d:	3a 5c 76 69          	cmp    bl,BYTE PTR [esi+esi*2+0x69]
  4022a1:	73 75                	jae    0x402318
  4022a3:	61                   	popa   
  4022a4:	6c                   	ins    BYTE PTR es:[edi],dx
  4022a5:	5f                   	pop    edi
  4022a6:	73 74                	jae    0x40231c
  4022a8:	75 64                	jne    0x40230e
  4022aa:	69 6f 5c 6c 6f 61 64 	imul   ebp,DWORD PTR [edi+0x5c],0x64616f6c
  4022b1:	65 72 5f             	gs jb  0x402313
  4022b4:	63 68 61             	arpl   WORD PTR [eax+0x61],bp
  4022b7:	6c                   	ins    BYTE PTR es:[edi],dx
  4022b8:	6c                   	ins    BYTE PTR es:[edi],dx
  4022b9:	5c                   	pop    esp
  4022ba:	52                   	push   edx
  4022bb:	65 6c                	gs ins BYTE PTR es:[edi],dx
  4022bd:	65 61                	gs popa 
  4022bf:	73 65                	jae    0x402326
  4022c1:	5c                   	pop    esp
  4022c2:	6c                   	ins    BYTE PTR es:[edi],dx
  4022c3:	6f                   	outs   dx,DWORD PTR ds:[esi]
  4022c4:	61                   	popa   
  4022c5:	64 65 72 5f          	fs gs jb 0x402328
  4022c9:	63 68 61             	arpl   WORD PTR [eax+0x61],bp
  4022cc:	6c                   	ins    BYTE PTR es:[edi],dx
  4022cd:	6c                   	ins    BYTE PTR es:[edi],dx
  4022ce:	2e 70 64             	cs jo  0x402335
  4022d1:	62 00                	bound  eax,QWORD PTR [eax]
  4022d3:	00 00                	add    BYTE PTR [eax],al
  4022d5:	00 00                	add    BYTE PTR [eax],al
  4022d7:	00 20                	add    BYTE PTR [eax],ah
  4022d9:	00 00                	add    BYTE PTR [eax],al
  4022db:	00 20                	add    BYTE PTR [eax],ah
  4022dd:	00 00                	add    BYTE PTR [eax],al
  4022df:	00 01                	add    BYTE PTR [ecx],al
  4022e1:	00 00                	add    BYTE PTR [eax],al
  4022e3:	00 1f                	add    BYTE PTR [edi],bl
  4022e5:	00 00                	add    BYTE PTR [eax],al
  4022e7:	00 47 43             	add    BYTE PTR [edi+0x43],al
  4022ea:	54                   	push   esp
  4022eb:	4c                   	dec    esp
  4022ec:	00 10                	add    BYTE PTR [eax],dl
  4022ee:	00 00                	add    BYTE PTR [eax],al
  4022f0:	e8 0c 00 00 2e       	call   0x2e402301
  4022f5:	74 65                	je     0x40235c
  4022f7:	78 74                	js     0x40236d
  4022f9:	24 6d                	and    al,0x6d
  4022fb:	6e                   	outs   dx,BYTE PTR ds:[esi]
  4022fc:	00 00                	add    BYTE PTR [eax],al
  4022fe:	00 00                	add    BYTE PTR [eax],al
  402300:	00 20                	add    BYTE PTR [eax],ah
  402302:	00 00                	add    BYTE PTR [eax],al
  402304:	d0 00                	rol    BYTE PTR [eax],1
  402306:	00 00                	add    BYTE PTR [eax],al
  402308:	2e 69 64 61 74 61 24 	imul   esp,DWORD PTR cs:[ecx+eiz*2+0x74],0x352461
  40230f:	35 00 
  402311:	00 00                	add    BYTE PTR [eax],al
  402313:	00 d0                	add    al,dl
  402315:	20 00                	and    BYTE PTR [eax],al
  402317:	00 04 00             	add    BYTE PTR [eax+eax*1],al
  40231a:	00 00                	add    BYTE PTR [eax],al
  40231c:	2e 30 30             	xor    BYTE PTR cs:[eax],dh
  40231f:	63 66 67             	arpl   WORD PTR [esi+0x67],sp
  402322:	00 00                	add    BYTE PTR [eax],al
  402324:	d4 20                	aam    0x20
  402326:	00 00                	add    BYTE PTR [eax],al
  402328:	04 00                	add    al,0x0
  40232a:	00 00                	add    BYTE PTR [eax],al
  40232c:	2e 43                	cs inc ebx
  40232e:	52                   	push   edx
  40232f:	54                   	push   esp
  402330:	24 58                	and    al,0x58
  402332:	43                   	inc    ebx
  402333:	41                   	inc    ecx
  402334:	00 00                	add    BYTE PTR [eax],al
  402336:	00 00                	add    BYTE PTR [eax],al
  402338:	d8 20                	fsub   DWORD PTR [eax]
  40233a:	00 00                	add    BYTE PTR [eax],al
  40233c:	04 00                	add    al,0x0
  40233e:	00 00                	add    BYTE PTR [eax],al
  402340:	2e 43                	cs inc ebx
  402342:	52                   	push   edx
  402343:	54                   	push   esp
  402344:	24 58                	and    al,0x58
  402346:	43                   	inc    ebx
  402347:	41                   	inc    ecx
  402348:	41                   	inc    ecx
  402349:	00 00                	add    BYTE PTR [eax],al
  40234b:	00 dc                	add    ah,bl
  40234d:	20 00                	and    BYTE PTR [eax],al
  40234f:	00 04 00             	add    BYTE PTR [eax+eax*1],al
  402352:	00 00                	add    BYTE PTR [eax],al
  402354:	2e 43                	cs inc ebx
  402356:	52                   	push   edx
  402357:	54                   	push   esp
  402358:	24 58                	and    al,0x58
  40235a:	43                   	inc    ebx
  40235b:	5a                   	pop    edx
  40235c:	00 00                	add    BYTE PTR [eax],al
  40235e:	00 00                	add    BYTE PTR [eax],al
  402360:	e0 20                	loopne 0x402382
  402362:	00 00                	add    BYTE PTR [eax],al
  402364:	04 00                	add    al,0x0
  402366:	00 00                	add    BYTE PTR [eax],al
  402368:	2e 43                	cs inc ebx
  40236a:	52                   	push   edx
  40236b:	54                   	push   esp
  40236c:	24 58                	and    al,0x58
  40236e:	49                   	dec    ecx
  40236f:	41                   	inc    ecx
  402370:	00 00                	add    BYTE PTR [eax],al
  402372:	00 00                	add    BYTE PTR [eax],al
  402374:	e4 20                	in     al,0x20
  402376:	00 00                	add    BYTE PTR [eax],al
  402378:	04 00                	add    al,0x0
  40237a:	00 00                	add    BYTE PTR [eax],al
  40237c:	2e 43                	cs inc ebx
  40237e:	52                   	push   edx
  40237f:	54                   	push   esp
  402380:	24 58                	and    al,0x58
  402382:	49                   	dec    ecx
  402383:	41                   	inc    ecx
  402384:	41                   	inc    ecx
  402385:	00 00                	add    BYTE PTR [eax],al
  402387:	00 e8                	add    al,ch
  402389:	20 00                	and    BYTE PTR [eax],al
  40238b:	00 04 00             	add    BYTE PTR [eax+eax*1],al
  40238e:	00 00                	add    BYTE PTR [eax],al
  402390:	2e 43                	cs inc ebx
  402392:	52                   	push   edx
  402393:	54                   	push   esp
  402394:	24 58                	and    al,0x58
  402396:	49                   	dec    ecx
  402397:	41                   	inc    ecx
  402398:	43                   	inc    ebx
  402399:	00 00                	add    BYTE PTR [eax],al
  40239b:	00 ec                	add    ah,ch
  40239d:	20 00                	and    BYTE PTR [eax],al
  40239f:	00 04 00             	add    BYTE PTR [eax+eax*1],al
  4023a2:	00 00                	add    BYTE PTR [eax],al
  4023a4:	2e 43                	cs inc ebx
  4023a6:	52                   	push   edx
  4023a7:	54                   	push   esp
  4023a8:	24 58                	and    al,0x58
  4023aa:	49                   	dec    ecx
  4023ab:	5a                   	pop    edx
  4023ac:	00 00                	add    BYTE PTR [eax],al
  4023ae:	00 00                	add    BYTE PTR [eax],al
  4023b0:	f0 20 00             	lock and BYTE PTR [eax],al
  4023b3:	00 04 00             	add    BYTE PTR [eax+eax*1],al
  4023b6:	00 00                	add    BYTE PTR [eax],al
  4023b8:	2e 43                	cs inc ebx
  4023ba:	52                   	push   edx
  4023bb:	54                   	push   esp
  4023bc:	24 58                	and    al,0x58
  4023be:	50                   	push   eax
  4023bf:	41                   	inc    ecx
  4023c0:	00 00                	add    BYTE PTR [eax],al
  4023c2:	00 00                	add    BYTE PTR [eax],al
  4023c4:	f4                   	hlt    
  4023c5:	20 00                	and    BYTE PTR [eax],al
  4023c7:	00 04 00             	add    BYTE PTR [eax+eax*1],al
  4023ca:	00 00                	add    BYTE PTR [eax],al
  4023cc:	2e 43                	cs inc ebx
  4023ce:	52                   	push   edx
  4023cf:	54                   	push   esp
  4023d0:	24 58                	and    al,0x58
  4023d2:	50                   	push   eax
  4023d3:	5a                   	pop    edx
  4023d4:	00 00                	add    BYTE PTR [eax],al
  4023d6:	00 00                	add    BYTE PTR [eax],al
  4023d8:	f8                   	clc    
  4023d9:	20 00                	and    BYTE PTR [eax],al
  4023db:	00 04 00             	add    BYTE PTR [eax+eax*1],al
  4023de:	00 00                	add    BYTE PTR [eax],al
  4023e0:	2e 43                	cs inc ebx
  4023e2:	52                   	push   edx
  4023e3:	54                   	push   esp
  4023e4:	24 58                	and    al,0x58
  4023e6:	54                   	push   esp
  4023e7:	41                   	inc    ecx
  4023e8:	00 00                	add    BYTE PTR [eax],al
  4023ea:	00 00                	add    BYTE PTR [eax],al
  4023ec:	fc                   	cld    
  4023ed:	20 00                	and    BYTE PTR [eax],al
  4023ef:	00 04 00             	add    BYTE PTR [eax+eax*1],al
  4023f2:	00 00                	add    BYTE PTR [eax],al
  4023f4:	2e 43                	cs inc ebx
  4023f6:	52                   	push   edx
  4023f7:	54                   	push   esp
  4023f8:	24 58                	and    al,0x58
  4023fa:	54                   	push   esp
  4023fb:	5a                   	pop    edx
  4023fc:	00 00                	add    BYTE PTR [eax],al
  4023fe:	00 00                	add    BYTE PTR [eax],al
  402400:	00 21                	add    BYTE PTR [ecx],ah
  402402:	00 00                	add    BYTE PTR [eax],al
  402404:	80 01 00             	add    BYTE PTR [ecx],0x0
  402407:	00 2e                	add    BYTE PTR [esi],ch
  402409:	72 64                	jb     0x40246f
  40240b:	61                   	popa   
  40240c:	74 61                	je     0x40246f
  40240e:	00 00                	add    BYTE PTR [eax],al
  402410:	80 22 00             	and    BYTE PTR [edx],0x0
  402413:	00 04 00             	add    BYTE PTR [eax+eax*1],al
  402416:	00 00                	add    BYTE PTR [eax],al
  402418:	2e 72 64             	cs jb  0x40247f
  40241b:	61                   	popa   
  40241c:	74 61                	je     0x40247f
  40241e:	24 73                	and    al,0x73
  402420:	78 64                	js     0x402486
  402422:	61                   	popa   
  402423:	74 61                	je     0x402486
  402425:	00 00                	add    BYTE PTR [eax],al
  402427:	00 84 22 00 00 b8 02 	add    BYTE PTR [edx+eiz*1+0x2b80000],al
  40242e:	00 00                	add    BYTE PTR [eax],al
  402430:	2e 72 64             	cs jb  0x402497
  402433:	61                   	popa   
  402434:	74 61                	je     0x402497
  402436:	24 7a                	and    al,0x7a
  402438:	7a 7a                	jp     0x4024b4
  40243a:	64 62 67 00          	bound  esp,QWORD PTR fs:[edi+0x0]
  40243e:	00 00                	add    BYTE PTR [eax],al
  402440:	3c 25                	cmp    al,0x25
  402442:	00 00                	add    BYTE PTR [eax],al
  402444:	04 00                	add    al,0x0
  402446:	00 00                	add    BYTE PTR [eax],al
  402448:	2e 72 74             	cs jb  0x4024bf
  40244b:	63 24 49             	arpl   WORD PTR [ecx+ecx*2],sp
  40244e:	41                   	inc    ecx
  40244f:	41                   	inc    ecx
  402450:	00 00                	add    BYTE PTR [eax],al
  402452:	00 00                	add    BYTE PTR [eax],al
  402454:	40                   	inc    eax
  402455:	25 00 00 04 00       	and    eax,0x40000
  40245a:	00 00                	add    BYTE PTR [eax],al
  40245c:	2e 72 74             	cs jb  0x4024d3
  40245f:	63 24 49             	arpl   WORD PTR [ecx+ecx*2],sp
  402462:	5a                   	pop    edx
  402463:	5a                   	pop    edx
  402464:	00 00                	add    BYTE PTR [eax],al
  402466:	00 00                	add    BYTE PTR [eax],al
  402468:	44                   	inc    esp
  402469:	25 00 00 04 00       	and    eax,0x40000
  40246e:	00 00                	add    BYTE PTR [eax],al
  402470:	2e 72 74             	cs jb  0x4024e7
  402473:	63 24 54             	arpl   WORD PTR [esp+edx*2],sp
  402476:	41                   	inc    ecx
  402477:	41                   	inc    ecx
  402478:	00 00                	add    BYTE PTR [eax],al
  40247a:	00 00                	add    BYTE PTR [eax],al
  40247c:	48                   	dec    eax
  40247d:	25 00 00 08 00       	and    eax,0x80000
  402482:	00 00                	add    BYTE PTR [eax],al
  402484:	2e 72 74             	cs jb  0x4024fb
  402487:	63 24 54             	arpl   WORD PTR [esp+edx*2],sp
  40248a:	5a                   	pop    edx
  40248b:	5a                   	pop    edx
  40248c:	00 00                	add    BYTE PTR [eax],al
  40248e:	00 00                	add    BYTE PTR [eax],al
  402490:	50                   	push   eax
  402491:	25 00 00 3c 00       	and    eax,0x3c0000
  402496:	00 00                	add    BYTE PTR [eax],al
  402498:	2e 78 64             	cs js  0x4024ff
  40249b:	61                   	popa   
  40249c:	74 61                	je     0x4024ff
  40249e:	24 78                	and    al,0x78
  4024a0:	00 00                	add    BYTE PTR [eax],al
  4024a2:	00 00                	add    BYTE PTR [eax],al
  4024a4:	8c 25 00 00 8c 00    	mov    WORD PTR ds:0x8c0000,fs
  4024aa:	00 00                	add    BYTE PTR [eax],al
  4024ac:	2e 69 64 61 74 61 24 	imul   esp,DWORD PTR cs:[ecx+eiz*2+0x74],0x322461
  4024b3:	32 00 
  4024b5:	00 00                	add    BYTE PTR [eax],al
  4024b7:	00 18                	add    BYTE PTR [eax],bl
  4024b9:	26 00 00             	add    BYTE PTR es:[eax],al
  4024bc:	14 00                	adc    al,0x0
  4024be:	00 00                	add    BYTE PTR [eax],al
  4024c0:	2e 69 64 61 74 61 24 	imul   esp,DWORD PTR cs:[ecx+eiz*2+0x74],0x332461
  4024c7:	33 00 
  4024c9:	00 00                	add    BYTE PTR [eax],al
  4024cb:	00 2c 26             	add    BYTE PTR [esi+eiz*1],ch
  4024ce:	00 00                	add    BYTE PTR [eax],al
  4024d0:	d0 00                	rol    BYTE PTR [eax],1
  4024d2:	00 00                	add    BYTE PTR [eax],al
  4024d4:	2e 69 64 61 74 61 24 	imul   esp,DWORD PTR cs:[ecx+eiz*2+0x74],0x342461
  4024db:	34 00 
  4024dd:	00 00                	add    BYTE PTR [eax],al
  4024df:	00 fc                	add    ah,bh
  4024e1:	26 00 00             	add    BYTE PTR es:[eax],al
  4024e4:	46                   	inc    esi
  4024e5:	04 00                	add    al,0x0
  4024e7:	00 2e                	add    BYTE PTR [esi],ch
  4024e9:	69 64 61 74 61 24 36 	imul   esp,DWORD PTR [ecx+eiz*2+0x74],0x362461
  4024f0:	00 
  4024f1:	00 00                	add    BYTE PTR [eax],al
  4024f3:	00 00                	add    BYTE PTR [eax],al
  4024f5:	30 00                	xor    BYTE PTR [eax],al
  4024f7:	00 18                	add    BYTE PTR [eax],bl
  4024f9:	00 00                	add    BYTE PTR [eax],al
  4024fb:	00 2e                	add    BYTE PTR [esi],ch
  4024fd:	64 61                	fs popa 
  4024ff:	74 61                	je     0x402562
  402501:	00 00                	add    BYTE PTR [eax],al
  402503:	00 18                	add    BYTE PTR [eax],bl
  402505:	30 00                	xor    BYTE PTR [eax],al
  402507:	00 70 03             	add    BYTE PTR [eax+0x3],dh
  40250a:	00 00                	add    BYTE PTR [eax],al
  40250c:	2e 62 73 73          	bound  esi,QWORD PTR cs:[ebx+0x73]
  402510:	00 00                	add    BYTE PTR [eax],al
  402512:	00 00                	add    BYTE PTR [eax],al
  402514:	00 40 00             	add    BYTE PTR [eax+0x0],al
  402517:	00 b0 00 00 00 2e    	add    BYTE PTR [eax+0x2e000000],dh
  40251d:	72 73                	jb     0x402592
  40251f:	72 63                	jb     0x402584
  402521:	24 30                	and    al,0x30
  402523:	31 00                	xor    DWORD PTR [eax],eax
  402525:	00 00                	add    BYTE PTR [eax],al
  402527:	00 b0 40 00 00 a8    	add    BYTE PTR [eax-0x57ffffc0],dh
  40252d:	28 01                	sub    BYTE PTR [ecx],al
  40252f:	00 2e                	add    BYTE PTR [esi],ch
  402531:	72 73                	jb     0x4025a6
  402533:	72 63                	jb     0x402598
  402535:	24 30                	and    al,0x30
  402537:	32 00                	xor    al,BYTE PTR [eax]
	...
  40254d:	00 00                	add    BYTE PTR [eax],al
  40254f:	00 fe                	add    dh,bh
  402551:	ff                   	(bad)  
  402552:	ff                   	(bad)  
  402553:	ff 00                	inc    DWORD PTR [eax]
  402555:	00 00                	add    BYTE PTR [eax],al
  402557:	00 cc                	add    ah,cl
  402559:	ff                   	(bad)  
  40255a:	ff                   	(bad)  
  40255b:	ff 00                	inc    DWORD PTR [eax]
  40255d:	00 00                	add    BYTE PTR [eax],al
  40255f:	00 fe                	add    dh,bh
  402561:	ff                   	(bad)  
  402562:	ff                   	(bad)  
  402563:	ff 4c 12 40          	dec    DWORD PTR [edx+edx*1+0x40]
  402567:	00 60 12             	add    BYTE PTR [eax+0x12],ah
  40256a:	40                   	inc    eax
  40256b:	00 00                	add    BYTE PTR [eax],al
  40256d:	00 00                	add    BYTE PTR [eax],al
  40256f:	00 fe                	add    dh,bh
  402571:	ff                   	(bad)  
  402572:	ff                   	(bad)  
  402573:	ff 00                	inc    DWORD PTR [eax]
  402575:	00 00                	add    BYTE PTR [eax],al
  402577:	00 d8                	add    al,bl
  402579:	ff                   	(bad)  
  40257a:	ff                   	(bad)  
  40257b:	ff 00                	inc    DWORD PTR [eax]
  40257d:	00 00                	add    BYTE PTR [eax],al
  40257f:	00 fe                	add    dh,bh
  402581:	ff                   	(bad)  
  402582:	ff                   	(bad)  
  402583:	ff 6e 15             	jmp    FWORD PTR [esi+0x15]
  402586:	40                   	inc    eax
  402587:	00 81 15 40 00 2c    	add    BYTE PTR [ecx+0x2c004015],al
  40258d:	26 00 00             	add    BYTE PTR es:[eax],al
	...
  402598:	3e 27                	ds daa 
  40259a:	00 00                	add    BYTE PTR [eax],al
  40259c:	00 20                	add    BYTE PTR [eax],ah
  40259e:	00 00                	add    BYTE PTR [eax],al
  4025a0:	70 26                	jo     0x4025c8
	...
  4025aa:	00 00                	add    BYTE PTR [eax],al
  4025ac:	a4                   	movs   BYTE PTR es:[edi],BYTE PTR ds:[esi]
  4025ad:	27                   	daa    
  4025ae:	00 00                	add    BYTE PTR [eax],al
  4025b0:	44                   	inc    esp
  4025b1:	20 00                	and    BYTE PTR [eax],al
  4025b3:	00 a0 26 00 00 00    	add    BYTE PTR [eax+0x26],ah
  4025b9:	00 00                	add    BYTE PTR [eax],al
  4025bb:	00 00                	add    BYTE PTR [eax],al
  4025bd:	00 00                	add    BYTE PTR [eax],al
  4025bf:	00 78 29             	add    BYTE PTR [eax+0x29],bh
  4025c2:	00 00                	add    BYTE PTR [eax],al
  4025c4:	74 20                	je     0x4025e6
  4025c6:	00 00                	add    BYTE PTR [eax],al
  4025c8:	98                   	cwde   
  4025c9:	26 00 00             	add    BYTE PTR es:[eax],al
	...
  4025d4:	9a 29 00 00 6c 20 00 	call   0x20:0x6c000029
  4025db:	00 f0                	add    al,dh
  4025dd:	26 00 00             	add    BYTE PTR es:[eax],al
	...
  4025e8:	ba 29 00 00 c4       	mov    edx,0xc4000029
  4025ed:	20 00                	and    BYTE PTR [eax],al
  4025ef:	00 90 26 00 00 00    	add    BYTE PTR [eax+0x26],dl
  4025f5:	00 00                	add    BYTE PTR [eax],al
  4025f7:	00 00                	add    BYTE PTR [eax],al
  4025f9:	00 00                	add    BYTE PTR [eax],al
  4025fb:	00 da                	add    dl,bl
  4025fd:	29 00                	sub    DWORD PTR [eax],eax
  4025ff:	00 64 20 00          	add    BYTE PTR [eax+eiz*1+0x0],ah
  402603:	00 88 26 00 00 00    	add    BYTE PTR [eax+0x26],cl
  402609:	00 00                	add    BYTE PTR [eax],al
  40260b:	00 00                	add    BYTE PTR [eax],al
  40260d:	00 00                	add    BYTE PTR [eax],al
  40260f:	00 fc                	add    ah,bh
  402611:	29 00                	sub    DWORD PTR [eax],eax
  402613:	00 5c 20 00          	add    BYTE PTR [eax+eiz*1+0x0],bl
	...
  40262b:	00 fc                	add    ah,bh
  40262d:	26 00 00             	add    BYTE PTR es:[eax],al
  402630:	0e                   	push   cs
  402631:	27                   	daa    
  402632:	00 00                	add    BYTE PTR [eax],al
  402634:	1e                   	push   ds
  402635:	27                   	daa    
  402636:	00 00                	add    BYTE PTR [eax],al
  402638:	2e 27                	cs daa 
  40263a:	00 00                	add    BYTE PTR [eax],al
  40263c:	38 2a                	cmp    BYTE PTR [edx],ch
  40263e:	00 00                	add    BYTE PTR [eax],al
  402640:	56                   	push   esi
  402641:	2a 00                	sub    al,BYTE PTR [eax]
  402643:	00 6a 2a             	add    BYTE PTR [edx+0x2a],ch
  402646:	00 00                	add    BYTE PTR [eax],al
  402648:	7e 2a                	jle    0x402674
  40264a:	00 00                	add    BYTE PTR [eax],al
  40264c:	9a 2a 00 00 b4 2a 00 	call   0x2a:0xb400002a
  402653:	00 24 2b             	add    BYTE PTR [ebx+ebp*1],ah
  402656:	00 00                	add    BYTE PTR [eax],al
  402658:	10 2b                	adc    BYTE PTR [ebx],ch
  40265a:	00 00                	add    BYTE PTR [eax],al
  40265c:	fa                   	cli    
  40265d:	2a 00                	sub    al,BYTE PTR [eax]
  40265f:	00 e0                	add    al,ah
  402661:	2a 00                	sub    al,BYTE PTR [eax]
  402663:	00 ca                	add    dl,cl
  402665:	2a 00                	sub    al,BYTE PTR [eax]
  402667:	00 1c 2a             	add    BYTE PTR [edx+ebp*1],bl
  40266a:	00 00                	add    BYTE PTR [eax],al
  40266c:	00 00                	add    BYTE PTR [eax],al
  40266e:	00 00                	add    BYTE PTR [eax],al
  402670:	4c                   	dec    esp
  402671:	27                   	daa    
  402672:	00 00                	add    BYTE PTR [eax],al
  402674:	62 27                	bound  esp,QWORD PTR [edi]
  402676:	00 00                	add    BYTE PTR [eax],al
  402678:	80 27 00             	and    BYTE PTR [edi],0x0
  40267b:	00 8a 27 00 00 38    	add    BYTE PTR [edx+0x38000027],cl
  402681:	2b 00                	sub    eax,DWORD PTR [eax]
  402683:	00 00                	add    BYTE PTR [eax],al
  402685:	00 00                	add    BYTE PTR [eax],al
  402687:	00 f6                	add    dh,dh
  402689:	28 00                	sub    BYTE PTR [eax],al
  40268b:	00 00                	add    BYTE PTR [eax],al
  40268d:	00 00                	add    BYTE PTR [eax],al
  40268f:	00 e0                	add    al,ah
  402691:	28 00                	sub    BYTE PTR [eax],al
  402693:	00 00                	add    BYTE PTR [eax],al
  402695:	00 00                	add    BYTE PTR [eax],al
  402697:	00 d8                	add    al,bl
  402699:	27                   	daa    
  40269a:	00 00                	add    BYTE PTR [eax],al
  40269c:	00 00                	add    BYTE PTR [eax],al
  40269e:	00 00                	add    BYTE PTR [eax],al
  4026a0:	16                   	push   ss
  4026a1:	29 00                	sub    DWORD PTR [eax],eax
  4026a3:	00 32                	add    BYTE PTR [edx],dh
  4026a5:	29 00                	sub    DWORD PTR [eax],eax
  4026a7:	00 4e 29             	add    BYTE PTR [esi+0x29],cl
  4026aa:	00 00                	add    BYTE PTR [eax],al
  4026ac:	5c                   	pop    esp
  4026ad:	29 00                	sub    DWORD PTR [eax],eax
  4026af:	00 6c 29 00          	add    BYTE PTR [ecx+ebp*1+0x0],ch
  4026b3:	00 90 28 00 00 9e    	add    BYTE PTR [eax-0x61ffffd8],dl
  4026b9:	28 00                	sub    BYTE PTR [eax],al
  4026bb:	00 b2 28 00 00 a8    	add    BYTE PTR [edx-0x57ffffd8],dh
  4026c1:	28 00                	sub    BYTE PTR [eax],al
  4026c3:	00 82 28 00 00 c8    	add    BYTE PTR [edx-0x37ffffd8],al
  4026c9:	27                   	daa    
  4026ca:	00 00                	add    BYTE PTR [eax],al
  4026cc:	6c                   	ins    BYTE PTR es:[edi],dx
  4026cd:	28 00                	sub    BYTE PTR [eax],al
  4026cf:	00 64 28 00          	add    BYTE PTR [eax+ebp*1+0x0],ah
  4026d3:	00 56 28             	add    BYTE PTR [esi+0x28],dl
  4026d6:	00 00                	add    BYTE PTR [eax],al
  4026d8:	4a                   	dec    edx
  4026d9:	28 00                	sub    BYTE PTR [eax],al
  4026db:	00 28                	add    BYTE PTR [eax],ch
  4026dd:	28 00                	sub    BYTE PTR [eax],al
  4026df:	00 06                	add    BYTE PTR [esi],al
  4026e1:	28 00                	sub    BYTE PTR [eax],al
  4026e3:	00 ec                	add    ah,ch
  4026e5:	27                   	daa    
  4026e6:	00 00                	add    BYTE PTR [eax],al
  4026e8:	b6 27                	mov    dh,0x27
  4026ea:	00 00                	add    BYTE PTR [eax],al
  4026ec:	00 00                	add    BYTE PTR [eax],al
  4026ee:	00 00                	add    BYTE PTR [eax],al
  4026f0:	06                   	push   es
  4026f1:	29 00                	sub    DWORD PTR [eax],eax
  4026f3:	00 74 28 00          	add    BYTE PTR [eax+ebp*1+0x0],dh
  4026f7:	00 00                	add    BYTE PTR [eax],al
  4026f9:	00 00                	add    BYTE PTR [eax],al
  4026fb:	00 7e 05             	add    BYTE PTR [esi+0x5],bh
  4026fe:	53                   	push   ebx
  4026ff:	69 7a 65 6f 66 52 65 	imul   edi,DWORD PTR [edx+0x65],0x6552666f
  402706:	73 6f                	jae    0x402777
  402708:	75 72                	jne    0x40277c
  40270a:	63 65 00             	arpl   WORD PTR [ebp+0x0],sp
  40270d:	00 c8                	add    al,cl
  40270f:	05 56 69 72 74       	add    eax,0x74726956
  402714:	75 61                	jne    0x402777
  402716:	6c                   	ins    BYTE PTR es:[edi],dx
  402717:	41                   	inc    ecx
  402718:	6c                   	ins    BYTE PTR es:[edi],dx
  402719:	6c                   	ins    BYTE PTR es:[edi],dx
  40271a:	6f                   	outs   dx,DWORD PTR ds:[esi]
  40271b:	63 00                	arpl   WORD PTR [eax],ax
  40271d:	00 ca                	add    dl,cl
  40271f:	03 4c 6f 61          	add    ecx,DWORD PTR [edi+ebp*2+0x61]
  402723:	64 52                	fs push edx
  402725:	65 73 6f             	gs jae 0x402797
  402728:	75 72                	jne    0x40279c
  40272a:	63 65 00             	arpl   WORD PTR [ebp+0x0],sp
  40272d:	00 98 01 46 69 6e    	add    BYTE PTR [eax+0x6e694601],bl
  402733:	64 52                	fs push edx
  402735:	65 73 6f             	gs jae 0x4027a7
  402738:	75 72                	jne    0x4027ac
  40273a:	63 65 57             	arpl   WORD PTR [ebp+0x57],sp
  40273d:	00 4b 45             	add    BYTE PTR [ebx+0x45],cl
  402740:	52                   	push   edx
  402741:	4e                   	dec    esi
  402742:	45                   	inc    ebp
  402743:	4c                   	dec    esp
  402744:	33 32                	xor    esi,DWORD PTR [edx]
  402746:	2e 64 6c             	cs fs ins BYTE PTR es:[edi],dx
  402749:	6c                   	ins    BYTE PTR es:[edi],dx
  40274a:	00 00                	add    BYTE PTR [eax],al
  40274c:	1c 00                	sbb    al,0x0
  40274e:	5f                   	pop    edi
  40274f:	5f                   	pop    edi
  402750:	63 75 72             	arpl   WORD PTR [ebp+0x72],si
  402753:	72 65                	jb     0x4027ba
  402755:	6e                   	outs   dx,BYTE PTR ds:[esi]
  402756:	74 5f                	je     0x4027b7
  402758:	65 78 63             	gs js  0x4027be
  40275b:	65 70 74             	gs jo  0x4027d2
  40275e:	69 6f 6e 00 1d 00 5f 	imul   ebp,DWORD PTR [edi+0x6e],0x5f001d00
  402765:	5f                   	pop    edi
  402766:	63 75 72             	arpl   WORD PTR [ebp+0x72],si
  402769:	72 65                	jb     0x4027d0
  40276b:	6e                   	outs   dx,BYTE PTR ds:[esi]
  40276c:	74 5f                	je     0x4027cd
  40276e:	65 78 63             	gs js  0x4027d4
  402771:	65 70 74             	gs jo  0x4027e8
  402774:	69 6f 6e 5f 63 6f 6e 	imul   ebp,DWORD PTR [edi+0x6e],0x6e6f635f
  40277b:	74 65                	je     0x4027e2
  40277d:	78 74                	js     0x4027f3
  40277f:	00 48 00             	add    BYTE PTR [eax+0x0],cl
  402782:	6d                   	ins    DWORD PTR es:[edi],dx
  402783:	65 6d                	gs ins DWORD PTR es:[edi],dx
  402785:	73 65                	jae    0x4027ec
  402787:	74 00                	je     0x402789
  402789:	00 35 00 5f 65 78    	add    BYTE PTR ds:0x78655f00,dh
  40278f:	63 65 70             	arpl   WORD PTR [ebp+0x70],sp
  402792:	74 5f                	je     0x4027f3
  402794:	68 61 6e 64 6c       	push   0x6c646e61
  402799:	65 72 34             	gs jb  0x4027d0
  40279c:	5f                   	pop    edi
  40279d:	63 6f 6d             	arpl   WORD PTR [edi+0x6d],bp
  4027a0:	6d                   	ins    DWORD PTR es:[edi],dx
  4027a1:	6f                   	outs   dx,DWORD PTR ds:[esi]
  4027a2:	6e                   	outs   dx,BYTE PTR ds:[esi]
  4027a3:	00 56 43             	add    BYTE PTR [esi+0x43],dl
  4027a6:	52                   	push   edx
  4027a7:	55                   	push   ebp
  4027a8:	4e                   	dec    esi
  4027a9:	54                   	push   esp
  4027aa:	49                   	dec    ecx
  4027ab:	4d                   	dec    ebp
  4027ac:	45                   	inc    ebp
  4027ad:	31 34 30             	xor    DWORD PTR [eax+esi*1],esi
  4027b0:	2e 64 6c             	cs fs ins BYTE PTR es:[edi],dx
  4027b3:	6c                   	ins    BYTE PTR es:[edi],dx
  4027b4:	00 00                	add    BYTE PTR [eax],al
  4027b6:	42                   	inc    edx
  4027b7:	00 5f 73             	add    BYTE PTR [edi+0x73],bl
  4027ba:	65 68 5f 66 69 6c    	gs push 0x6c69665f
  4027c0:	74 65                	je     0x402827
  4027c2:	72 5f                	jb     0x402823
  4027c4:	65 78 65             	gs js  0x40282c
  4027c7:	00 44 00 5f          	add    BYTE PTR [eax+eax*1+0x5f],al
  4027cb:	73 65                	jae    0x402832
  4027cd:	74 5f                	je     0x40282e
  4027cf:	61                   	popa   
  4027d0:	70 70                	jo     0x402842
  4027d2:	5f                   	pop    edi
  4027d3:	74 79                	je     0x40284e
  4027d5:	70 65                	jo     0x40283c
  4027d7:	00 2e                	add    BYTE PTR [esi],ch
  4027d9:	00 5f 5f             	add    BYTE PTR [edi+0x5f],bl
  4027dc:	73 65                	jae    0x402843
  4027de:	74 75                	je     0x402855
  4027e0:	73 65                	jae    0x402847
  4027e2:	72 6d                	jb     0x402851
  4027e4:	61                   	popa   
  4027e5:	74 68                	je     0x40284f
  4027e7:	65 72 72             	gs jb  0x40285c
  4027ea:	00 00                	add    BYTE PTR [eax],al
  4027ec:	19 00                	sbb    DWORD PTR [eax],eax
  4027ee:	5f                   	pop    edi
  4027ef:	63 6f 6e             	arpl   WORD PTR [edi+0x6e],bp
  4027f2:	66 69 67 75 72 65    	imul   sp,WORD PTR [edi+0x75],0x6572
  4027f8:	5f                   	pop    edi
  4027f9:	6e                   	outs   dx,BYTE PTR ds:[esi]
  4027fa:	61                   	popa   
  4027fb:	72 72                	jb     0x40286f
  4027fd:	6f                   	outs   dx,DWORD PTR ds:[esi]
  4027fe:	77 5f                	ja     0x40285f
  402800:	61                   	popa   
  402801:	72 67                	jb     0x40286a
  402803:	76 00                	jbe    0x402805
  402805:	00 35 00 5f 69 6e    	add    BYTE PTR ds:0x6e695f00,dh
  40280b:	69 74 69 61 6c 69 7a 	imul   esi,DWORD PTR [ecx+ebp*2+0x61],0x657a696c
  402812:	65 
  402813:	5f                   	pop    edi
  402814:	6e                   	outs   dx,BYTE PTR ds:[esi]
  402815:	61                   	popa   
  402816:	72 72                	jb     0x40288a
  402818:	6f                   	outs   dx,DWORD PTR ds:[esi]
  402819:	77 5f                	ja     0x40287a
  40281b:	65 6e                	outs   dx,BYTE PTR gs:[esi]
  40281d:	76 69                	jbe    0x402888
  40281f:	72 6f                	jb     0x402890
  402821:	6e                   	outs   dx,BYTE PTR ds:[esi]
  402822:	6d                   	ins    DWORD PTR es:[edi],dx
  402823:	65 6e                	outs   dx,BYTE PTR gs:[esi]
  402825:	74 00                	je     0x402827
  402827:	00 2a                	add    BYTE PTR [edx],ch
  402829:	00 5f 67             	add    BYTE PTR [edi+0x67],bl
  40282c:	65 74 5f             	gs je  0x40288e
  40282f:	69 6e 69 74 69 61 6c 	imul   ebp,DWORD PTR [esi+0x69],0x6c616974
  402836:	5f                   	pop    edi
  402837:	6e                   	outs   dx,BYTE PTR ds:[esi]
  402838:	61                   	popa   
  402839:	72 72                	jb     0x4028ad
  40283b:	6f                   	outs   dx,DWORD PTR ds:[esi]
  40283c:	77 5f                	ja     0x40289d
  40283e:	65 6e                	outs   dx,BYTE PTR gs:[esi]
  402840:	76 69                	jbe    0x4028ab
  402842:	72 6f                	jb     0x4028b3
  402844:	6e                   	outs   dx,BYTE PTR ds:[esi]
  402845:	6d                   	ins    DWORD PTR es:[edi],dx
  402846:	65 6e                	outs   dx,BYTE PTR gs:[esi]
  402848:	74 00                	je     0x40284a
  40284a:	38 00                	cmp    BYTE PTR [eax],al
  40284c:	5f                   	pop    edi
  40284d:	69 6e 69 74 74 65 72 	imul   ebp,DWORD PTR [esi+0x69],0x72657474
  402854:	6d                   	ins    DWORD PTR es:[edi],dx
  402855:	00 39                	add    BYTE PTR [ecx],bh
  402857:	00 5f 69             	add    BYTE PTR [edi+0x69],bl
  40285a:	6e                   	outs   dx,BYTE PTR ds:[esi]
  40285b:	69 74 74 65 72 6d 5f 	imul   esi,DWORD PTR [esp+esi*2+0x65],0x655f6d72
  402862:	65 
  402863:	00 58 00             	add    BYTE PTR [eax+0x0],bl
  402866:	65 78 69             	gs js  0x4028d2
  402869:	74 00                	je     0x40286b
  40286b:	00 25 00 5f 65 78    	add    BYTE PTR ds:0x78655f00,ah
  402871:	69 74 00 54 00 5f 73 	imul   esi,DWORD PTR [eax+eax*1+0x54],0x65735f00
  402878:	65 
  402879:	74 5f                	je     0x4028da
  40287b:	66 6d                	ins    WORD PTR es:[edi],dx
  40287d:	6f                   	outs   dx,DWORD PTR ds:[esi]
  40287e:	64 65 00 00          	fs add BYTE PTR gs:[eax],al
  402882:	05 00 5f 5f 70       	add    eax,0x705f5f00
  402887:	5f                   	pop    edi
  402888:	5f                   	pop    edi
  402889:	5f                   	pop    edi
  40288a:	61                   	popa   
  40288b:	72 67                	jb     0x4028f4
  40288d:	63 00                	arpl   WORD PTR [eax],ax
  40288f:	00 06                	add    BYTE PTR [esi],al
  402891:	00 5f 5f             	add    BYTE PTR [edi+0x5f],bl
  402894:	70 5f                	jo     0x4028f5
  402896:	5f                   	pop    edi
  402897:	5f                   	pop    edi
  402898:	61                   	popa   
  402899:	72 67                	jb     0x402902
  40289b:	76 00                	jbe    0x40289d
  40289d:	00 17                	add    BYTE PTR [edi],dl
  40289f:	00 5f 63             	add    BYTE PTR [edi+0x63],bl
  4028a2:	65 78 69             	gs js  0x40290e
  4028a5:	74 00                	je     0x4028a7
  4028a7:	00 16                	add    BYTE PTR [esi],dl
  4028a9:	00 5f 63             	add    BYTE PTR [edi+0x63],bl
  4028ac:	5f                   	pop    edi
  4028ad:	65 78 69             	gs js  0x402919
  4028b0:	74 00                	je     0x4028b2
  4028b2:	3f                   	aas    
  4028b3:	00 5f 72             	add    BYTE PTR [edi+0x72],bl
  4028b6:	65 67 69 73 74 65 72 	imul   esi,DWORD PTR gs:[bp+di+0x74],0x745f7265
  4028bd:	5f 74 
  4028bf:	68 72 65 61 64       	push   0x64616572
  4028c4:	5f                   	pop    edi
  4028c5:	6c                   	ins    BYTE PTR es:[edi],dx
  4028c6:	6f                   	outs   dx,DWORD PTR ds:[esi]
  4028c7:	63 61 6c             	arpl   WORD PTR [ecx+0x6c],sp
  4028ca:	5f                   	pop    edi
  4028cb:	65 78 65             	gs js  0x402933
  4028ce:	5f                   	pop    edi
  4028cf:	61                   	popa   
  4028d0:	74 65                	je     0x402937
  4028d2:	78 69                	js     0x40293d
  4028d4:	74 5f                	je     0x402935
  4028d6:	63 61 6c             	arpl   WORD PTR [ecx+0x6c],sp
  4028d9:	6c                   	ins    BYTE PTR es:[edi],dx
  4028da:	62 61 63             	bound  esp,QWORD PTR [ecx+0x63]
  4028dd:	6b 00 00             	imul   eax,DWORD PTR [eax],0x0
  4028e0:	08 00                	or     BYTE PTR [eax],al
  4028e2:	5f                   	pop    edi
  4028e3:	63 6f 6e             	arpl   WORD PTR [edi+0x6e],bp
  4028e6:	66 69 67 74 68 72    	imul   sp,WORD PTR [edi+0x74],0x7268
  4028ec:	65 61                	gs popa 
  4028ee:	64 6c                	fs ins BYTE PTR es:[edi],dx
  4028f0:	6f                   	outs   dx,DWORD PTR ds:[esi]
  4028f1:	63 61 6c             	arpl   WORD PTR [ecx+0x6c],sp
  4028f4:	65 00 16             	add    BYTE PTR gs:[esi],dl
  4028f7:	00 5f 73             	add    BYTE PTR [edi+0x73],bl
  4028fa:	65 74 5f             	gs je  0x40295c
  4028fd:	6e                   	outs   dx,BYTE PTR ds:[esi]
  4028fe:	65 77 5f             	gs ja  0x402960
  402901:	6d                   	ins    DWORD PTR es:[edi],dx
  402902:	6f                   	outs   dx,DWORD PTR ds:[esi]
  402903:	64 65 00 01          	fs add BYTE PTR gs:[ecx],al
  402907:	00 5f 5f             	add    BYTE PTR [edi+0x5f],bl
  40290a:	70 5f                	jo     0x40296b
  40290c:	5f                   	pop    edi
  40290d:	63 6f 6d             	arpl   WORD PTR [edi+0x6d],bp
  402910:	6d                   	ins    DWORD PTR es:[edi],dx
  402911:	6f                   	outs   dx,DWORD PTR ds:[esi]
  402912:	64 65 00 00          	fs add BYTE PTR gs:[eax],al
  402916:	36 00 5f 69          	add    BYTE PTR ss:[edi+0x69],bl
  40291a:	6e                   	outs   dx,BYTE PTR ds:[esi]
  40291b:	69 74 69 61 6c 69 7a 	imul   esi,DWORD PTR [ecx+ebp*2+0x61],0x657a696c
  402922:	65 
  402923:	5f                   	pop    edi
  402924:	6f                   	outs   dx,DWORD PTR ds:[esi]
  402925:	6e                   	outs   dx,BYTE PTR ds:[esi]
  402926:	65 78 69             	gs js  0x402992
  402929:	74 5f                	je     0x40298a
  40292b:	74 61                	je     0x40298e
  40292d:	62 6c 65 00          	bound  ebp,QWORD PTR [ebp+eiz*2+0x0]
  402931:	00 3e                	add    BYTE PTR [esi],bh
  402933:	00 5f 72             	add    BYTE PTR [edi+0x72],bl
  402936:	65 67 69 73 74 65 72 	imul   esi,DWORD PTR gs:[bp+di+0x74],0x6f5f7265
  40293d:	5f 6f 
  40293f:	6e                   	outs   dx,BYTE PTR ds:[esi]
  402940:	65 78 69             	gs js  0x4029ac
  402943:	74 5f                	je     0x4029a4
  402945:	66 75 6e             	data16 jne 0x4029b6
  402948:	63 74 69 6f          	arpl   WORD PTR [ecx+ebp*2+0x6f],si
  40294c:	6e                   	outs   dx,BYTE PTR ds:[esi]
  40294d:	00 1f                	add    BYTE PTR [edi],bl
  40294f:	00 5f 63             	add    BYTE PTR [edi+0x63],bl
  402952:	72 74                	jb     0x4029c8
  402954:	5f                   	pop    edi
  402955:	61                   	popa   
  402956:	74 65                	je     0x4029bd
  402958:	78 69                	js     0x4029c3
  40295a:	74 00                	je     0x40295c
  40295c:	1d 00 5f 63 6f       	sbb    eax,0x6f635f00
  402961:	6e                   	outs   dx,BYTE PTR ds:[esi]
  402962:	74 72                	je     0x4029d6
  402964:	6f                   	outs   dx,DWORD PTR ds:[esi]
  402965:	6c                   	ins    BYTE PTR es:[edi],dx
  402966:	66 70 5f             	data16 jo 0x4029c8
  402969:	73 00                	jae    0x40296b
  40296b:	00 6a 00             	add    BYTE PTR [edx+0x0],ch
  40296e:	74 65                	je     0x4029d5
  402970:	72 6d                	jb     0x4029df
  402972:	69 6e 61 74 65 00 61 	imul   ebp,DWORD PTR [esi+0x61],0x61006574
  402979:	70 69                	jo     0x4029e4
  40297b:	2d 6d 73 2d 77       	sub    eax,0x772d736d
  402980:	69 6e 2d 63 72 74 2d 	imul   ebp,DWORD PTR [esi+0x2d],0x2d747263
  402987:	72 75                	jb     0x4029fe
  402989:	6e                   	outs   dx,BYTE PTR ds:[esi]
  40298a:	74 69                	je     0x4029f5
  40298c:	6d                   	ins    DWORD PTR es:[edi],dx
  40298d:	65 2d 6c 31 2d 31    	gs sub eax,0x312d316c
  402993:	2d 30 2e 64 6c       	sub    eax,0x6c642e30
  402998:	6c                   	ins    BYTE PTR es:[edi],dx
  402999:	00 61 70             	add    BYTE PTR [ecx+0x70],ah
  40299c:	69 2d 6d 73 2d 77 69 	imul   ebp,DWORD PTR ds:0x772d736d,0x632d6e69
  4029a3:	6e 2d 63 
  4029a6:	72 74                	jb     0x402a1c
  4029a8:	2d 6d 61 74 68       	sub    eax,0x6874616d
  4029ad:	2d 6c 31 2d 31       	sub    eax,0x312d316c
  4029b2:	2d 30 2e 64 6c       	sub    eax,0x6c642e30
  4029b7:	6c                   	ins    BYTE PTR es:[edi],dx
  4029b8:	00 00                	add    BYTE PTR [eax],al
  4029ba:	61                   	popa   
  4029bb:	70 69                	jo     0x402a26
  4029bd:	2d 6d 73 2d 77       	sub    eax,0x772d736d
  4029c2:	69 6e 2d 63 72 74 2d 	imul   ebp,DWORD PTR [esi+0x2d],0x2d747263
  4029c9:	73 74                	jae    0x402a3f
  4029cb:	64 69 6f 2d 6c 31 2d 	imul   ebp,DWORD PTR fs:[edi+0x2d],0x312d316c
  4029d2:	31 
  4029d3:	2d 30 2e 64 6c       	sub    eax,0x6c642e30
  4029d8:	6c                   	ins    BYTE PTR es:[edi],dx
  4029d9:	00 61 70             	add    BYTE PTR [ecx+0x70],ah
  4029dc:	69 2d 6d 73 2d 77 69 	imul   ebp,DWORD PTR ds:0x772d736d,0x632d6e69
  4029e3:	6e 2d 63 
  4029e6:	72 74                	jb     0x402a5c
  4029e8:	2d 6c 6f 63 61       	sub    eax,0x61636f6c
  4029ed:	6c                   	ins    BYTE PTR es:[edi],dx
  4029ee:	65 2d 6c 31 2d 31    	gs sub eax,0x312d316c
  4029f4:	2d 30 2e 64 6c       	sub    eax,0x6c642e30
  4029f9:	6c                   	ins    BYTE PTR es:[edi],dx
  4029fa:	00 00                	add    BYTE PTR [eax],al
  4029fc:	61                   	popa   
  4029fd:	70 69                	jo     0x402a68
  4029ff:	2d 6d 73 2d 77       	sub    eax,0x772d736d
  402a04:	69 6e 2d 63 72 74 2d 	imul   ebp,DWORD PTR [esi+0x2d],0x2d747263
  402a0b:	68 65 61 70 2d       	push   0x2d706165
  402a10:	6c                   	ins    BYTE PTR es:[edi],dx
  402a11:	31 2d 31 2d 30 2e    	xor    DWORD PTR ds:0x2e302d31,ebp
  402a17:	64 6c                	fs ins BYTE PTR es:[edi],dx
  402a19:	6c                   	ins    BYTE PTR es:[edi],dx
  402a1a:	00 00                	add    BYTE PTR [eax],al
  402a1c:	af                   	scas   eax,DWORD PTR es:[edi]
  402a1d:	05 55 6e 68 61       	add    eax,0x61686e55
  402a22:	6e                   	outs   dx,BYTE PTR ds:[esi]
  402a23:	64 6c                	fs ins BYTE PTR es:[edi],dx
  402a25:	65 64 45             	gs fs inc ebp
  402a28:	78 63                	js     0x402a8d
  402a2a:	65 70 74             	gs jo  0x402aa1
  402a2d:	69 6f 6e 46 69 6c 74 	imul   ebp,DWORD PTR [edi+0x6e],0x746c6946
  402a34:	65 72 00             	gs jb  0x402a37
  402a37:	00 6f 05             	add    BYTE PTR [edi+0x5],ch
  402a3a:	53                   	push   ebx
  402a3b:	65 74 55             	gs je  0x402a93
  402a3e:	6e                   	outs   dx,BYTE PTR ds:[esi]
  402a3f:	68 61 6e 64 6c       	push   0x6c646e61
  402a44:	65 64 45             	gs fs inc ebp
  402a47:	78 63                	js     0x402aac
  402a49:	65 70 74             	gs jo  0x402ac0
  402a4c:	69 6f 6e 46 69 6c 74 	imul   ebp,DWORD PTR [edi+0x6e],0x746c6946
  402a53:	65 72 00             	gs jb  0x402a56
  402a56:	19 02                	sbb    DWORD PTR [edx],eax
  402a58:	47                   	inc    edi
  402a59:	65 74 43             	gs je  0x402a9f
  402a5c:	75 72                	jne    0x402ad0
  402a5e:	72 65                	jb     0x402ac5
  402a60:	6e                   	outs   dx,BYTE PTR ds:[esi]
  402a61:	74 50                	je     0x402ab3
  402a63:	72 6f                	jb     0x402ad4
  402a65:	63 65 73             	arpl   WORD PTR [ebp+0x73],sp
  402a68:	73 00                	jae    0x402a6a
  402a6a:	8e 05 54 65 72 6d    	mov    es,WORD PTR ds:0x6d726554
  402a70:	69 6e 61 74 65 50 72 	imul   ebp,DWORD PTR [esi+0x61],0x72506574
  402a77:	6f                   	outs   dx,DWORD PTR ds:[esi]
  402a78:	63 65 73             	arpl   WORD PTR [ebp+0x73],sp
  402a7b:	73 00                	jae    0x402a7d
  402a7d:	00 88 03 49 73 50    	add    BYTE PTR [eax+0x50734903],cl
  402a83:	72 6f                	jb     0x402af4
  402a85:	63 65 73             	arpl   WORD PTR [ebp+0x73],sp
  402a88:	73 6f                	jae    0x402af9
  402a8a:	72 46                	jb     0x402ad2
  402a8c:	65 61                	gs popa 
  402a8e:	74 75                	je     0x402b05
  402a90:	72 65                	jb     0x402af7
  402a92:	50                   	push   eax
  402a93:	72 65                	jb     0x402afa
  402a95:	73 65                	jae    0x402afc
  402a97:	6e                   	outs   dx,BYTE PTR ds:[esi]
  402a98:	74 00                	je     0x402a9a
  402a9a:	4e                   	dec    esi
  402a9b:	04 51                	add    al,0x51
  402a9d:	75 65                	jne    0x402b04
  402a9f:	72 79                	jb     0x402b1a
  402aa1:	50                   	push   eax
  402aa2:	65 72 66             	gs jb  0x402b0b
  402aa5:	6f                   	outs   dx,DWORD PTR ds:[esi]
  402aa6:	72 6d                	jb     0x402b15
  402aa8:	61                   	popa   
  402aa9:	6e                   	outs   dx,BYTE PTR ds:[esi]
  402aaa:	63 65 43             	arpl   WORD PTR [ebp+0x43],sp
  402aad:	6f                   	outs   dx,DWORD PTR ds:[esi]
  402aae:	75 6e                	jne    0x402b1e
  402ab0:	74 65                	je     0x402b17
  402ab2:	72 00                	jb     0x402ab4
  402ab4:	1a 02                	sbb    al,BYTE PTR [edx]
  402ab6:	47                   	inc    edi
  402ab7:	65 74 43             	gs je  0x402afd
  402aba:	75 72                	jne    0x402b2e
  402abc:	72 65                	jb     0x402b23
  402abe:	6e                   	outs   dx,BYTE PTR ds:[esi]
  402abf:	74 50                	je     0x402b11
  402ac1:	72 6f                	jb     0x402b32
  402ac3:	63 65 73             	arpl   WORD PTR [ebp+0x73],sp
  402ac6:	73 49                	jae    0x402b11
  402ac8:	64 00 1e             	add    BYTE PTR fs:[esi],bl
  402acb:	02 47 65             	add    al,BYTE PTR [edi+0x65]
  402ace:	74 43                	je     0x402b13
  402ad0:	75 72                	jne    0x402b44
  402ad2:	72 65                	jb     0x402b39
  402ad4:	6e                   	outs   dx,BYTE PTR ds:[esi]
  402ad5:	74 54                	je     0x402b2b
  402ad7:	68 72 65 61 64       	push   0x64616572
  402adc:	49                   	dec    ecx
  402add:	64 00 00             	add    BYTE PTR fs:[eax],al
  402ae0:	eb 02                	jmp    0x402ae4
  402ae2:	47                   	inc    edi
  402ae3:	65 74 53             	gs je  0x402b39
  402ae6:	79 73                	jns    0x402b5b
  402ae8:	74 65                	je     0x402b4f
  402aea:	6d                   	ins    DWORD PTR es:[edi],dx
  402aeb:	54                   	push   esp
  402aec:	69 6d 65 41 73 46 69 	imul   ebp,DWORD PTR [ebp+0x65],0x69467341
  402af3:	6c                   	ins    BYTE PTR es:[edi],dx
  402af4:	65 54                	gs push esp
  402af6:	69 6d 65 00 65 03 49 	imul   ebp,DWORD PTR [ebp+0x65],0x49036500
  402afd:	6e                   	outs   dx,BYTE PTR ds:[esi]
  402afe:	69 74 69 61 6c 69 7a 	imul   esi,DWORD PTR [ecx+ebp*2+0x61],0x657a696c
  402b05:	65 
  402b06:	53                   	push   ebx
  402b07:	4c                   	dec    esp
  402b08:	69 73 74 48 65 61 64 	imul   esi,DWORD PTR [ebx+0x74],0x64616548
  402b0f:	00 81 03 49 73 44    	add    BYTE PTR [ecx+0x44734903],al
  402b15:	65 62 75 67          	bound  esi,QWORD PTR gs:[ebp+0x67]
  402b19:	67 65 72 50          	addr16 gs jb 0x402b6d
  402b1d:	72 65                	jb     0x402b84
  402b1f:	73 65                	jae    0x402b86
  402b21:	6e                   	outs   dx,BYTE PTR ds:[esi]
  402b22:	74 00                	je     0x402b24
  402b24:	7a 02                	jp     0x402b28
  402b26:	47                   	inc    edi
  402b27:	65 74 4d             	gs je  0x402b77
  402b2a:	6f                   	outs   dx,DWORD PTR ds:[esi]
  402b2b:	64 75 6c             	fs jne 0x402b9a
  402b2e:	65 48                	gs dec eax
  402b30:	61                   	popa   
  402b31:	6e                   	outs   dx,BYTE PTR ds:[esi]
  402b32:	64 6c                	fs ins BYTE PTR es:[edi],dx
  402b34:	65 57                	gs push edi
  402b36:	00 00                	add    BYTE PTR [eax],al
  402b38:	46                   	inc    esi
  402b39:	00 6d 65             	add    BYTE PTR [ebp+0x65],ch
  402b3c:	6d                   	ins    DWORD PTR es:[edi],dx
  402b3d:	63 70 79             	arpl   WORD PTR [eax+0x79],si
	...

Disassembly of section .rsrc:

00404000 <.rsrc>:
	...
  40400c:	01 00                	add    DWORD PTR [eax],eax
  40400e:	01 00                	add    DWORD PTR [eax],eax
  404010:	a0 00 00 80 20       	mov    al,ds:0x20800000
  404015:	00 00                	add    BYTE PTR [eax],al
  404017:	80 18 00             	sbb    BYTE PTR [eax],0x0
  40401a:	00 00                	add    BYTE PTR [eax],al
  40401c:	38 00                	cmp    BYTE PTR [eax],al
  40401e:	00 80 00 00 00 00    	add    BYTE PTR [eax+0x0],al
	...
  40402c:	00 00                	add    BYTE PTR [eax],al
  40402e:	01 00                	add    DWORD PTR [eax],eax
  404030:	65 00 00             	add    BYTE PTR gs:[eax],al
  404033:	00 50 00             	add    BYTE PTR [eax+0x0],dl
  404036:	00 80 00 00 00 00    	add    BYTE PTR [eax+0x0],al
	...
  404044:	00 00                	add    BYTE PTR [eax],al
  404046:	01 00                	add    DWORD PTR [eax],eax
  404048:	01 00                	add    DWORD PTR [eax],eax
  40404a:	00 00                	add    BYTE PTR [eax],al
  40404c:	68 00 00 80 00       	push   0x800000
	...
  40405d:	00 01                	add    BYTE PTR [ecx],al
  40405f:	00 09                	add    BYTE PTR [ecx],cl
  404061:	04 00                	add    al,0x0
  404063:	00 80 00 00 00 00    	add    BYTE PTR [eax+0x0],al
	...
  404075:	00 01                	add    BYTE PTR [ecx],al
  404077:	00 09                	add    BYTE PTR [ecx],cl
  404079:	04 00                	add    al,0x0
  40407b:	00 90 00 00 00 b0    	add    BYTE PTR [eax-0x50000000],dl
  404081:	40                   	inc    eax
  404082:	00 00                	add    BYTE PTR [eax],al
  404084:	27                   	daa    
  404085:	27                   	daa    
  404086:	01 00                	add    DWORD PTR [eax],eax
	...
  404090:	d8 67 01             	fsub   DWORD PTR [edi+0x1]
  404093:	00 7d 01             	add    BYTE PTR [ebp+0x1],bh
	...
  40409e:	00 00                	add    BYTE PTR [eax],al
  4040a0:	05 00 42 00 49       	add    eax,0x49004200
  4040a5:	00 4e 00             	add    BYTE PTR [esi+0x0],cl
  4040a8:	30 00                	xor    BYTE PTR [eax],al
  4040aa:	31 00                	xor    DWORD PTR [eax],eax
  4040ac:	00 00                	add    BYTE PTR [eax],al
  4040ae:	00 00                	add    BYTE PTR [eax],al
  4040b0:	e9 46 04 00 00       	jmp    0x4044fb
  4040b5:	55                   	push   ebp
  4040b6:	8b ec                	mov    ebp,esp
  4040b8:	83 ec 18             	sub    esp,0x18
  4040bb:	53                   	push   ebx
  4040bc:	56                   	push   esi
  4040bd:	8b 71 3c             	mov    esi,DWORD PTR [ecx+0x3c]
  4040c0:	57                   	push   edi
  4040c1:	89 55 f4             	mov    DWORD PTR [ebp-0xc],edx
  4040c4:	8b 44 0e 78          	mov    eax,DWORD PTR [esi+ecx*1+0x78]
  4040c8:	85 c0                	test   eax,eax
  4040ca:	74 6d                	je     0x404139
  4040cc:	83 7c 0e 7c 00       	cmp    DWORD PTR [esi+ecx*1+0x7c],0x0
  4040d1:	74 66                	je     0x404139
  4040d3:	8b 5c 08 18          	mov    ebx,DWORD PTR [eax+ecx*1+0x18]
  4040d7:	89 5d f8             	mov    DWORD PTR [ebp-0x8],ebx
  4040da:	85 db                	test   ebx,ebx
  4040dc:	74 5b                	je     0x404139
  4040de:	8b 54 08 1c          	mov    edx,DWORD PTR [eax+ecx*1+0x1c]
  4040e2:	8b 74 08 20          	mov    esi,DWORD PTR [eax+ecx*1+0x20]
  4040e6:	03 d1                	add    edx,ecx
  4040e8:	8b 44 08 24          	mov    eax,DWORD PTR [eax+ecx*1+0x24]
  4040ec:	03 f1                	add    esi,ecx
  4040ee:	89 55 e8             	mov    DWORD PTR [ebp-0x18],edx
  4040f1:	03 c1                	add    eax,ecx
  4040f3:	33 d2                	xor    edx,edx
  4040f5:	89 75 f0             	mov    DWORD PTR [ebp-0x10],esi
  4040f8:	89 45 ec             	mov    DWORD PTR [ebp-0x14],eax
  4040fb:	85 db                	test   ebx,ebx
  4040fd:	74 3a                	je     0x404139
  4040ff:	8b 3c 96             	mov    edi,DWORD PTR [esi+edx*4]
  404102:	33 f6                	xor    esi,esi
  404104:	03 f9                	add    edi,ecx
  404106:	89 7d fc             	mov    DWORD PTR [ebp-0x4],edi
  404109:	8a 07                	mov    al,BYTE PTR [edi]
  40410b:	84 c0                	test   al,al
  40410d:	74 17                	je     0x404126
  40410f:	8b df                	mov    ebx,edi
  404111:	69 f6 83 00 00 00    	imul   esi,esi,0x83
  404117:	0f be c0             	movsx  eax,al
  40411a:	03 f0                	add    esi,eax
  40411c:	43                   	inc    ebx
  40411d:	8a 03                	mov    al,BYTE PTR [ebx]
  40411f:	84 c0                	test   al,al
  404121:	75 ee                	jne    0x404111
  404123:	8b 5d f8             	mov    ebx,DWORD PTR [ebp-0x8]
  404126:	81 e6 ff ff ff 7f    	and    esi,0x7fffffff
  40412c:	3b 75 f4             	cmp    esi,DWORD PTR [ebp-0xc]
  40412f:	74 11                	je     0x404142
  404131:	8b 75 f0             	mov    esi,DWORD PTR [ebp-0x10]
  404134:	42                   	inc    edx
  404135:	3b d3                	cmp    edx,ebx
  404137:	72 c6                	jb     0x4040ff
  404139:	33 c0                	xor    eax,eax
  40413b:	5f                   	pop    edi
  40413c:	5e                   	pop    esi
  40413d:	5b                   	pop    ebx
  40413e:	8b e5                	mov    esp,ebp
  404140:	5d                   	pop    ebp
  404141:	c3                   	ret    
  404142:	83 7d 08 00          	cmp    DWORD PTR [ebp+0x8],0x0
  404146:	75 11                	jne    0x404159
  404148:	8b 45 ec             	mov    eax,DWORD PTR [ebp-0x14]
  40414b:	0f b7 04 50          	movzx  eax,WORD PTR [eax+edx*2]
  40414f:	8b 55 e8             	mov    edx,DWORD PTR [ebp-0x18]
  404152:	8b 04 82             	mov    eax,DWORD PTR [edx+eax*4]
  404155:	03 c1                	add    eax,ecx
  404157:	eb e2                	jmp    0x40413b
  404159:	57                   	push   edi
  40415a:	51                   	push   ecx
  40415b:	ff 55 08             	call   DWORD PTR [ebp+0x8]
  40415e:	eb db                	jmp    0x40413b
  404160:	55                   	push   ebp
  404161:	8b ec                	mov    ebp,esp
  404163:	51                   	push   ecx
  404164:	83 65 fc 00          	and    DWORD PTR [ebp-0x4],0x0
  404168:	e8 00 00 00 00       	call   0x40416d
  40416d:	58                   	pop    eax
  40416e:	2d bd 10 2f 01       	sub    eax,0x12f10bd
  404173:	89 45 fc             	mov    DWORD PTR [ebp-0x4],eax
  404176:	8b 45 fc             	mov    eax,DWORD PTR [ebp-0x4]
  404179:	8b e5                	mov    esp,ebp
  40417b:	5d                   	pop    ebp
  40417c:	c3                   	ret    
  40417d:	55                   	push   ebp
  40417e:	8b ec                	mov    ebp,esp
  404180:	51                   	push   ecx
  404181:	51                   	push   ecx
  404182:	64 a1 30 00 00 00    	mov    eax,fs:0x30
  404188:	ba 54 b8 b9 1a       	mov    edx,0x1ab9b854
  40418d:	56                   	push   esi
  40418e:	57                   	push   edi
  40418f:	8b f9                	mov    edi,ecx
  404191:	8b 40 0c             	mov    eax,DWORD PTR [eax+0xc]
  404194:	6a 00                	push   0x0
  404196:	8b 40 14             	mov    eax,DWORD PTR [eax+0x14]
  404199:	8b 00                	mov    eax,DWORD PTR [eax]
  40419b:	8b 00                	mov    eax,DWORD PTR [eax]
  40419d:	8b 70 10             	mov    esi,DWORD PTR [eax+0x10]
  4041a0:	8b ce                	mov    ecx,esi
  4041a2:	e8 0e ff ff ff       	call   0x4040b5
  4041a7:	50                   	push   eax
  4041a8:	ba 78 1f 20 7f       	mov    edx,0x7f201f78
  4041ad:	89 07                	mov    DWORD PTR [edi],eax
  4041af:	8b ce                	mov    ecx,esi
  4041b1:	e8 ff fe ff ff       	call   0x4040b5
  4041b6:	ff 37                	push   DWORD PTR [edi]
  4041b8:	ba 62 34 89 5e       	mov    edx,0x5e893462
  4041bd:	89 47 04             	mov    DWORD PTR [edi+0x4],eax
  4041c0:	8b ce                	mov    ecx,esi
  4041c2:	e8 ee fe ff ff       	call   0x4040b5
  4041c7:	ff 37                	push   DWORD PTR [edi]
  4041c9:	ba 73 80 48 06       	mov    edx,0x6488073
  4041ce:	89 47 08             	mov    DWORD PTR [edi+0x8],eax
  4041d1:	8b ce                	mov    ecx,esi
  4041d3:	e8 dd fe ff ff       	call   0x4040b5
  4041d8:	ff 37                	push   DWORD PTR [edi]
  4041da:	ba a5 f2 5c 70       	mov    edx,0x705cf2a5
  4041df:	89 47 0c             	mov    DWORD PTR [edi+0xc],eax
  4041e2:	8b ce                	mov    ecx,esi
  4041e4:	e8 cc fe ff ff       	call   0x4040b5
  4041e9:	83 c4 14             	add    esp,0x14
  4041ec:	89 47 10             	mov    DWORD PTR [edi+0x10],eax
  4041ef:	8d 45 f8             	lea    eax,[ebp-0x8]
  4041f2:	c7 45 f8 6e 74 64 6c 	mov    DWORD PTR [ebp-0x8],0x6c64746e
  4041f9:	66 c7 45 fc 6c 00    	mov    WORD PTR [ebp-0x4],0x6c
  4041ff:	50                   	push   eax
  404200:	ff 57 04             	call   DWORD PTR [edi+0x4]
  404203:	ff 37                	push   DWORD PTR [edi]
  404205:	8b f0                	mov    esi,eax
  404207:	ba cb 79 b5 0d       	mov    edx,0xdb579cb
  40420c:	8b ce                	mov    ecx,esi
  40420e:	e8 a2 fe ff ff       	call   0x4040b5
  404213:	ff 37                	push   DWORD PTR [edi]
  404215:	ba c0 e9 18 15       	mov    edx,0x1518e9c0
  40421a:	89 47 14             	mov    DWORD PTR [edi+0x14],eax
  40421d:	8b ce                	mov    ecx,esi
  40421f:	e8 91 fe ff ff       	call   0x4040b5
  404224:	59                   	pop    ecx
  404225:	59                   	pop    ecx
  404226:	89 47 18             	mov    DWORD PTR [edi+0x18],eax
  404229:	5f                   	pop    edi
  40422a:	5e                   	pop    esi
  40422b:	8b e5                	mov    esp,ebp
  40422d:	5d                   	pop    ebp
  40422e:	c3                   	ret    
  40422f:	55                   	push   ebp
  404230:	8b ec                	mov    ebp,esp
  404232:	83 ec 18             	sub    esp,0x18
  404235:	8b c2                	mov    eax,edx
  404237:	89 4d fc             	mov    DWORD PTR [ebp-0x4],ecx
  40423a:	89 45 f4             	mov    DWORD PTR [ebp-0xc],eax
  40423d:	53                   	push   ebx
  40423e:	56                   	push   esi
  40423f:	85 c0                	test   eax,eax
  404241:	75 07                	jne    0x40424a
  404243:	33 c0                	xor    eax,eax
  404245:	e9 92 02 00 00       	jmp    0x4044dc
  40424a:	ba 4d 5a 00 00       	mov    edx,0x5a4d
  40424f:	66 39 10             	cmp    WORD PTR [eax],dx
  404252:	75 ef                	jne    0x404243
  404254:	57                   	push   edi
  404255:	8b 78 3c             	mov    edi,DWORD PTR [eax+0x3c]
  404258:	03 f8                	add    edi,eax
  40425a:	81 3f 50 45 00 00    	cmp    DWORD PTR [edi],0x4550
  404260:	0f 85 73 02 00 00    	jne    0x4044d9
  404266:	b8 4c 01 00 00       	mov    eax,0x14c
  40426b:	66 39 47 04          	cmp    WORD PTR [edi+0x4],ax
  40426f:	0f 85 64 02 00 00    	jne    0x4044d9
  404275:	83 c0 bf             	add    eax,0xffffffbf
  404278:	66 39 47 18          	cmp    WORD PTR [edi+0x18],ax
  40427c:	0f 85 57 02 00 00    	jne    0x4044d9
  404282:	6a 40                	push   0x40
  404284:	68 00 10 00 00       	push   0x1000
  404289:	ff 77 50             	push   DWORD PTR [edi+0x50]
  40428c:	33 db                	xor    ebx,ebx
  40428e:	53                   	push   ebx
  40428f:	ff 51 08             	call   DWORD PTR [ecx+0x8]
  404292:	8b f0                	mov    esi,eax
  404294:	85 f6                	test   esi,esi
  404296:	0f 84 3d 02 00 00    	je     0x4044d9
  40429c:	ff 77 54             	push   DWORD PTR [edi+0x54]
  40429f:	8b 45 fc             	mov    eax,DWORD PTR [ebp-0x4]
  4042a2:	ff 75 f4             	push   DWORD PTR [ebp-0xc]
  4042a5:	56                   	push   esi
  4042a6:	ff 50 18             	call   DWORD PTR [eax+0x18]
  4042a9:	8b 7e 3c             	mov    edi,DWORD PTR [esi+0x3c]
  4042ac:	33 c0                	xor    eax,eax
  4042ae:	03 fe                	add    edi,esi
  4042b0:	89 5d f0             	mov    DWORD PTR [ebp-0x10],ebx
  4042b3:	89 7d ec             	mov    DWORD PTR [ebp-0x14],edi
  4042b6:	66 3b 47 06          	cmp    ax,WORD PTR [edi+0x6]
  4042ba:	73 58                	jae    0x404314
  4042bc:	8b 5d f4             	mov    ebx,DWORD PTR [ebp-0xc]
  4042bf:	8d 87 08 01 00 00    	lea    eax,[edi+0x108]
  4042c5:	89 45 f8             	mov    DWORD PTR [ebp-0x8],eax
  4042c8:	8b 48 fc             	mov    ecx,DWORD PTR [eax-0x4]
  4042cb:	85 c9                	test   ecx,ecx
  4042cd:	74 2b                	je     0x4042fa
  4042cf:	03 ce                	add    ecx,esi
  4042d1:	83 38 00             	cmp    DWORD PTR [eax],0x0
  4042d4:	74 11                	je     0x4042e7
  4042d6:	ff 30                	push   DWORD PTR [eax]
  4042d8:	8b 40 04             	mov    eax,DWORD PTR [eax+0x4]
  4042db:	03 c3                	add    eax,ebx
  4042dd:	50                   	push   eax
  4042de:	8b 45 fc             	mov    eax,DWORD PTR [ebp-0x4]
  4042e1:	51                   	push   ecx
  4042e2:	ff 50 18             	call   DWORD PTR [eax+0x18]
  4042e5:	eb 10                	jmp    0x4042f7
  4042e7:	83 7f 38 00          	cmp    DWORD PTR [edi+0x38],0x0
  4042eb:	76 0d                	jbe    0x4042fa
  4042ed:	ff 77 38             	push   DWORD PTR [edi+0x38]
  4042f0:	8b 45 fc             	mov    eax,DWORD PTR [ebp-0x4]
  4042f3:	51                   	push   ecx
  4042f4:	ff 50 14             	call   DWORD PTR [eax+0x14]
  4042f7:	8b 45 f8             	mov    eax,DWORD PTR [ebp-0x8]
  4042fa:	8b 4d f0             	mov    ecx,DWORD PTR [ebp-0x10]
  4042fd:	83 c0 28             	add    eax,0x28
  404300:	89 45 f8             	mov    DWORD PTR [ebp-0x8],eax
  404303:	41                   	inc    ecx
  404304:	0f b7 47 06          	movzx  eax,WORD PTR [edi+0x6]
  404308:	3b c8                	cmp    ecx,eax
  40430a:	89 4d f0             	mov    DWORD PTR [ebp-0x10],ecx
  40430d:	8b 45 f8             	mov    eax,DWORD PTR [ebp-0x8]
  404310:	7c b6                	jl     0x4042c8
  404312:	33 db                	xor    ebx,ebx
  404314:	8b 87 a0 00 00 00    	mov    eax,DWORD PTR [edi+0xa0]
  40431a:	85 c0                	test   eax,eax
  40431c:	74 60                	je     0x40437e
  40431e:	39 9f a4 00 00 00    	cmp    DWORD PTR [edi+0xa4],ebx
  404324:	74 58                	je     0x40437e
  404326:	8d 0c 30             	lea    ecx,[eax+esi*1]
  404329:	eb 45                	jmp    0x404370
  40432b:	8d 42 f8             	lea    eax,[edx-0x8]
  40432e:	89 5d f4             	mov    DWORD PTR [ebp-0xc],ebx
  404331:	d1 e8                	shr    eax,1
  404333:	89 45 f8             	mov    DWORD PTR [ebp-0x8],eax
  404336:	85 c0                	test   eax,eax
  404338:	7e 31                	jle    0x40436b
  40433a:	0f b7 54 59 08       	movzx  edx,WORD PTR [ecx+ebx*2+0x8]
  40433f:	8b c2                	mov    eax,edx
  404341:	c7 45 f4 00 30 00 00 	mov    DWORD PTR [ebp-0xc],0x3000
  404348:	25 00 f0 00 00       	and    eax,0xf000
  40434d:	66 3b 45 f4          	cmp    ax,WORD PTR [ebp-0xc]
  404351:	75 10                	jne    0x404363
  404353:	81 e2 ff 0f 00 00    	and    edx,0xfff
  404359:	8b c6                	mov    eax,esi
  40435b:	03 11                	add    edx,DWORD PTR [ecx]
  40435d:	2b 47 34             	sub    eax,DWORD PTR [edi+0x34]
  404360:	01 04 32             	add    DWORD PTR [edx+esi*1],eax
  404363:	43                   	inc    ebx
  404364:	3b 5d f8             	cmp    ebx,DWORD PTR [ebp-0x8]
  404367:	7c d1                	jl     0x40433a
  404369:	33 db                	xor    ebx,ebx
  40436b:	8b 45 f0             	mov    eax,DWORD PTR [ebp-0x10]
  40436e:	03 08                	add    ecx,DWORD PTR [eax]
  404370:	8d 41 04             	lea    eax,[ecx+0x4]
  404373:	8b 10                	mov    edx,DWORD PTR [eax]
  404375:	89 45 f0             	mov    DWORD PTR [ebp-0x10],eax
  404378:	8b 01                	mov    eax,DWORD PTR [ecx]
  40437a:	03 c2                	add    eax,edx
  40437c:	75 ad                	jne    0x40432b
  40437e:	8b 87 80 00 00 00    	mov    eax,DWORD PTR [edi+0x80]
  404384:	85 c0                	test   eax,eax
  404386:	74 7f                	je     0x404407
  404388:	39 9f 84 00 00 00    	cmp    DWORD PTR [edi+0x84],ebx
  40438e:	74 77                	je     0x404407
  404390:	03 c6                	add    eax,esi
  404392:	eb 69                	jmp    0x4043fd
  404394:	03 c6                	add    eax,esi
  404396:	50                   	push   eax
  404397:	8b 45 fc             	mov    eax,DWORD PTR [ebp-0x4]
  40439a:	ff 50 04             	call   DWORD PTR [eax+0x4]
  40439d:	89 45 e8             	mov    DWORD PTR [ebp-0x18],eax
  4043a0:	85 c0                	test   eax,eax
  4043a2:	0f 84 22 01 00 00    	je     0x4044ca
  4043a8:	8b 45 f8             	mov    eax,DWORD PTR [ebp-0x8]
  4043ab:	8b 08                	mov    ecx,DWORD PTR [eax]
  4043ad:	85 c9                	test   ecx,ecx
  4043af:	75 03                	jne    0x4043b4
  4043b1:	8b 48 10             	mov    ecx,DWORD PTR [eax+0x10]
  4043b4:	8b 50 10             	mov    edx,DWORD PTR [eax+0x10]
  4043b7:	03 ce                	add    ecx,esi
  4043b9:	89 4d f0             	mov    DWORD PTR [ebp-0x10],ecx
  4043bc:	03 d6                	add    edx,esi
  4043be:	89 55 f4             	mov    DWORD PTR [ebp-0xc],edx
  4043c1:	8b 09                	mov    ecx,DWORD PTR [ecx]
  4043c3:	85 c9                	test   ecx,ecx
  4043c5:	74 33                	je     0x4043fa
  4043c7:	8b 5d fc             	mov    ebx,DWORD PTR [ebp-0x4]
  4043ca:	8b fa                	mov    edi,edx
  4043cc:	79 05                	jns    0x4043d3
  4043ce:	0f b7 c1             	movzx  eax,cx
  4043d1:	eb 05                	jmp    0x4043d8
  4043d3:	8d 46 02             	lea    eax,[esi+0x2]
  4043d6:	03 c1                	add    eax,ecx
  4043d8:	50                   	push   eax
  4043d9:	ff 75 e8             	push   DWORD PTR [ebp-0x18]
  4043dc:	ff 13                	call   DWORD PTR [ebx]
  4043de:	89 07                	mov    DWORD PTR [edi],eax
  4043e0:	83 c7 04             	add    edi,0x4
  4043e3:	8b 45 f0             	mov    eax,DWORD PTR [ebp-0x10]
  4043e6:	83 c0 04             	add    eax,0x4
  4043e9:	89 45 f0             	mov    DWORD PTR [ebp-0x10],eax
  4043ec:	8b 08                	mov    ecx,DWORD PTR [eax]
  4043ee:	85 c9                	test   ecx,ecx
  4043f0:	75 da                	jne    0x4043cc
  4043f2:	8b 7d ec             	mov    edi,DWORD PTR [ebp-0x14]
  4043f5:	33 db                	xor    ebx,ebx
  4043f7:	8b 45 f8             	mov    eax,DWORD PTR [ebp-0x8]
  4043fa:	83 c0 14             	add    eax,0x14
  4043fd:	89 45 f8             	mov    DWORD PTR [ebp-0x8],eax
  404400:	8b 40 0c             	mov    eax,DWORD PTR [eax+0xc]
  404403:	85 c0                	test   eax,eax
  404405:	75 8d                	jne    0x404394
  404407:	8b 8f c0 00 00 00    	mov    ecx,DWORD PTR [edi+0xc0]
  40440d:	85 c9                	test   ecx,ecx
  40440f:	74 3f                	je     0x404450
  404411:	8b 4c 31 0c          	mov    ecx,DWORD PTR [ecx+esi*1+0xc]
  404415:	33 d2                	xor    edx,edx
  404417:	6a 03                	push   0x3
  404419:	58                   	pop    eax
  40441a:	2b c1                	sub    eax,ecx
  40441c:	89 4d f0             	mov    DWORD PTR [ebp-0x10],ecx
  40441f:	c1 e8 02             	shr    eax,0x2
  404422:	85 c9                	test   ecx,ecx
  404424:	89 5d f4             	mov    DWORD PTR [ebp-0xc],ebx
  404427:	0f 45 c2             	cmovne eax,edx
  40442a:	89 45 e8             	mov    DWORD PTR [ebp-0x18],eax
  40442d:	85 c0                	test   eax,eax
  40442f:	74 1f                	je     0x404450
  404431:	8b f8                	mov    edi,eax
  404433:	53                   	push   ebx
  404434:	6a 01                	push   0x1
  404436:	56                   	push   esi
  404437:	ff 11                	call   DWORD PTR [ecx]
  404439:	8b 4d f0             	mov    ecx,DWORD PTR [ebp-0x10]
  40443c:	8b 45 f4             	mov    eax,DWORD PTR [ebp-0xc]
  40443f:	83 c1 04             	add    ecx,0x4
  404442:	40                   	inc    eax
  404443:	89 4d f0             	mov    DWORD PTR [ebp-0x10],ecx
  404446:	89 45 f4             	mov    DWORD PTR [ebp-0xc],eax
  404449:	3b c7                	cmp    eax,edi
  40444b:	75 e6                	jne    0x404433
  40444d:	8b 7d ec             	mov    edi,DWORD PTR [ebp-0x14]
  404450:	8b 47 28             	mov    eax,DWORD PTR [edi+0x28]
  404453:	03 c6                	add    eax,esi
  404455:	74 08                	je     0x40445f
  404457:	ff 75 08             	push   DWORD PTR [ebp+0x8]
  40445a:	6a 01                	push   0x1
  40445c:	56                   	push   esi
  40445d:	ff d0                	call   eax
  40445f:	83 7d 0c 00          	cmp    DWORD PTR [ebp+0xc],0x0
  404463:	0f 84 8d 00 00 00    	je     0x4044f6
  404469:	8b 45 10             	mov    eax,DWORD PTR [ebp+0x10]
  40446c:	85 c0                	test   eax,eax
  40446e:	0f 84 82 00 00 00    	je     0x4044f6
  404474:	89 18                	mov    DWORD PTR [eax],ebx
  404476:	8b 47 78             	mov    eax,DWORD PTR [edi+0x78]
  404479:	85 c0                	test   eax,eax
  40447b:	74 79                	je     0x4044f6
  40447d:	39 5f 7c             	cmp    DWORD PTR [edi+0x7c],ebx
  404480:	74 74                	je     0x4044f6
  404482:	39 5c 30 18          	cmp    DWORD PTR [eax+esi*1+0x18],ebx
  404486:	74 6e                	je     0x4044f6
  404488:	8b 4c 30 1c          	mov    ecx,DWORD PTR [eax+esi*1+0x1c]
  40448c:	8b 54 30 20          	mov    edx,DWORD PTR [eax+esi*1+0x20]
  404490:	03 ce                	add    ecx,esi
  404492:	89 4d f4             	mov    DWORD PTR [ebp-0xc],ecx
  404495:	03 d6                	add    edx,esi
  404497:	8b 4c 30 24          	mov    ecx,DWORD PTR [eax+esi*1+0x24]
  40449b:	03 ce                	add    ecx,esi
  40449d:	89 55 ec             	mov    DWORD PTR [ebp-0x14],edx
  4044a0:	89 4d f0             	mov    DWORD PTR [ebp-0x10],ecx
  4044a3:	39 5c 30 14          	cmp    DWORD PTR [eax+esi*1+0x14],ebx
  4044a7:	76 4d                	jbe    0x4044f6
  4044a9:	8b f8                	mov    edi,eax
  4044ab:	8b 04 9a             	mov    eax,DWORD PTR [edx+ebx*4]
  4044ae:	ff 75 0c             	push   DWORD PTR [ebp+0xc]
  4044b1:	03 c6                	add    eax,esi
  4044b3:	50                   	push   eax
  4044b4:	8b 45 fc             	mov    eax,DWORD PTR [ebp-0x4]
  4044b7:	ff 50 10             	call   DWORD PTR [eax+0x10]
  4044ba:	85 c0                	test   eax,eax
  4044bc:	74 24                	je     0x4044e2
  4044be:	8b 55 ec             	mov    edx,DWORD PTR [ebp-0x14]
  4044c1:	43                   	inc    ebx
  4044c2:	3b 5c 37 14          	cmp    ebx,DWORD PTR [edi+esi*1+0x14]
  4044c6:	72 e3                	jb     0x4044ab
  4044c8:	eb 2c                	jmp    0x4044f6
  4044ca:	8b 45 fc             	mov    eax,DWORD PTR [ebp-0x4]
  4044cd:	68 00 40 00 00       	push   0x4000
  4044d2:	ff 77 50             	push   DWORD PTR [edi+0x50]
  4044d5:	56                   	push   esi
  4044d6:	ff 50 0c             	call   DWORD PTR [eax+0xc]
  4044d9:	33 c0                	xor    eax,eax
  4044db:	5f                   	pop    edi
  4044dc:	5e                   	pop    esi
  4044dd:	5b                   	pop    ebx
  4044de:	8b e5                	mov    esp,ebp
  4044e0:	5d                   	pop    ebp
  4044e1:	c3                   	ret    
  4044e2:	8b 45 f0             	mov    eax,DWORD PTR [ebp-0x10]
  4044e5:	8b 4d f4             	mov    ecx,DWORD PTR [ebp-0xc]
  4044e8:	0f b7 04 58          	movzx  eax,WORD PTR [eax+ebx*2]
  4044ec:	8b 04 81             	mov    eax,DWORD PTR [ecx+eax*4]
  4044ef:	8b 4d 10             	mov    ecx,DWORD PTR [ebp+0x10]
  4044f2:	03 c6                	add    eax,esi
  4044f4:	89 01                	mov    DWORD PTR [ecx],eax
  4044f6:	33 c0                	xor    eax,eax
  4044f8:	40                   	inc    eax
  4044f9:	eb e0                	jmp    0x4044db
  4044fb:	55                   	push   ebp
  4044fc:	8b ec                	mov    ebp,esp
  4044fe:	83 ec 24             	sub    esp,0x24
  404501:	53                   	push   ebx
  404502:	56                   	push   esi
  404503:	57                   	push   edi
  404504:	8d 4d dc             	lea    ecx,[ebp-0x24]
  404507:	e8 71 fc ff ff       	call   0x40417d
  40450c:	e8 4f fc ff ff       	call   0x404160
  404511:	83 65 fc 00          	and    DWORD PTR [ebp-0x4],0x0
  404515:	8b f0                	mov    esi,eax
  404517:	81 c6 fe 14 2f 01    	add    esi,0x12f14fe
  40451d:	33 db                	xor    ebx,ebx
  40451f:	8b 7e 0d             	mov    edi,DWORD PTR [esi+0xd]
  404522:	8b 46 01             	mov    eax,DWORD PTR [esi+0x1]
  404525:	03 fe                	add    edi,esi
  404527:	85 c0                	test   eax,eax
  404529:	74 3a                	je     0x404565
  40452b:	6a 04                	push   0x4
  40452d:	68 00 10 00 00       	push   0x1000
  404532:	ff 76 05             	push   DWORD PTR [esi+0x5]
  404535:	03 c6                	add    eax,esi
  404537:	53                   	push   ebx
  404538:	89 45 f8             	mov    DWORD PTR [ebp-0x8],eax
  40453b:	ff 55 e4             	call   DWORD PTR [ebp-0x1c]
  40453e:	8b d8                	mov    ebx,eax
  404540:	85 db                	test   ebx,ebx
  404542:	75 04                	jne    0x404548
  404544:	33 c0                	xor    eax,eax
  404546:	eb 5f                	jmp    0x4045a7
  404548:	ff 76 05             	push   DWORD PTR [esi+0x5]
  40454b:	53                   	push   ebx
  40454c:	ff 76 09             	push   DWORD PTR [esi+0x9]
  40454f:	57                   	push   edi
  404550:	ff 55 f8             	call   DWORD PTR [ebp-0x8]
  404553:	83 c4 10             	add    esp,0x10
  404556:	83 f8 ff             	cmp    eax,0xffffffff
  404559:	74 20                	je     0x40457b
  40455b:	3b 46 05             	cmp    eax,DWORD PTR [esi+0x5]
  40455e:	75 1b                	jne    0x40457b
  404560:	8b fb                	mov    edi,ebx
  404562:	33 db                	xor    ebx,ebx
  404564:	43                   	inc    ebx
  404565:	80 3e 00             	cmp    BYTE PTR [esi],0x0
  404568:	8d 45 fc             	lea    eax,[ebp-0x4]
  40456b:	50                   	push   eax
  40456c:	8b d7                	mov    edx,edi
  40456e:	8d 4d dc             	lea    ecx,[ebp-0x24]
  404571:	8d 46 11             	lea    eax,[esi+0x11]
  404574:	75 13                	jne    0x404589
  404576:	6a 00                	push   0x0
  404578:	50                   	push   eax
  404579:	eb 11                	jmp    0x40458c
  40457b:	68 00 40 00 00       	push   0x4000
  404580:	ff 76 05             	push   DWORD PTR [esi+0x5]
  404583:	53                   	push   ebx
  404584:	ff 55 e8             	call   DWORD PTR [ebp-0x18]
  404587:	eb bb                	jmp    0x404544
  404589:	50                   	push   eax
  40458a:	6a 00                	push   0x0
  40458c:	e8 9e fc ff ff       	call   0x40422f
  404591:	83 c4 0c             	add    esp,0xc
  404594:	85 db                	test   ebx,ebx
  404596:	74 0c                	je     0x4045a4
  404598:	68 00 40 00 00       	push   0x4000
  40459d:	ff 76 05             	push   DWORD PTR [esi+0x5]
  4045a0:	57                   	push   edi
  4045a1:	ff 55 e8             	call   DWORD PTR [ebp-0x18]
  4045a4:	8b 45 fc             	mov    eax,DWORD PTR [ebp-0x4]
  4045a7:	5f                   	pop    edi
  4045a8:	5e                   	pop    esi
  4045a9:	5b                   	pop    ebx
  4045aa:	8b e5                	mov    esp,ebp
  4045ac:	5d                   	pop    ebp
  4045ad:	c3                   	ret    
  4045ae:	00 75 00             	add    BYTE PTR [ebp+0x0],dh
  4045b1:	00 00                	add    BYTE PTR [eax],al
  4045b3:	00 98 01 00 44 20    	add    BYTE PTR [eax+0x20440001],bl
  4045b9:	01 00                	add    DWORD PTR [eax],eax
  4045bb:	e5 01                	in     eax,0x1
  4045bd:	00 00                	add    BYTE PTR [eax],al
  4045bf:	44                   	inc    esp
  4045c0:	4c                   	dec    esp
  4045c1:	4c                   	dec    esp
  4045c2:	5f                   	pop    edi
  4045c3:	50                   	push   eax
  4045c4:	52                   	push   edx
  4045c5:	4f                   	dec    edi
  4045c6:	43                   	inc    ebx
  4045c7:	45                   	inc    ebp
  4045c8:	53                   	push   ebx
  4045c9:	53                   	push   ebx
  4045ca:	5f                   	pop    edi
  4045cb:	41                   	inc    ecx
  4045cc:	54                   	push   esp
  4045cd:	54                   	push   esp
  4045ce:	41                   	inc    ecx
  4045cf:	43                   	inc    ebx
  4045d0:	48                   	dec    eax
	...
  404621:	00 00                	add    BYTE PTR [eax],al
  404623:	55                   	push   ebp
  404624:	8b ec                	mov    ebp,esp
  404626:	ff 75 14             	push   DWORD PTR [ebp+0x14]
  404629:	8b 55 0c             	mov    edx,DWORD PTR [ebp+0xc]
  40462c:	ff 75 10             	push   DWORD PTR [ebp+0x10]
  40462f:	8b 4d 08             	mov    ecx,DWORD PTR [ebp+0x8]
  404632:	e8 bc 00 00 00       	call   0x4046f3
  404637:	83 c4 08             	add    esp,0x8
  40463a:	5d                   	pop    ebp
  40463b:	c3                   	ret    
  40463c:	55                   	push   ebp
  40463d:	8b ec                	mov    ebp,esp
  40463f:	83 ec 18             	sub    esp,0x18
  404642:	53                   	push   ebx
  404643:	56                   	push   esi
  404644:	8b 71 3c             	mov    esi,DWORD PTR [ecx+0x3c]
  404647:	57                   	push   edi
  404648:	89 55 f4             	mov    DWORD PTR [ebp-0xc],edx
  40464b:	8b 44 0e 78          	mov    eax,DWORD PTR [esi+ecx*1+0x78]
  40464f:	85 c0                	test   eax,eax
  404651:	74 6d                	je     0x4046c0
  404653:	83 7c 0e 7c 00       	cmp    DWORD PTR [esi+ecx*1+0x7c],0x0
  404658:	74 66                	je     0x4046c0
  40465a:	8b 5c 08 18          	mov    ebx,DWORD PTR [eax+ecx*1+0x18]
  40465e:	89 5d f8             	mov    DWORD PTR [ebp-0x8],ebx
  404661:	85 db                	test   ebx,ebx
  404663:	74 5b                	je     0x4046c0
  404665:	8b 54 08 1c          	mov    edx,DWORD PTR [eax+ecx*1+0x1c]
  404669:	8b 74 08 20          	mov    esi,DWORD PTR [eax+ecx*1+0x20]
  40466d:	03 d1                	add    edx,ecx
  40466f:	8b 44 08 24          	mov    eax,DWORD PTR [eax+ecx*1+0x24]
  404673:	03 f1                	add    esi,ecx
  404675:	89 55 e8             	mov    DWORD PTR [ebp-0x18],edx
  404678:	03 c1                	add    eax,ecx
  40467a:	33 d2                	xor    edx,edx
  40467c:	89 75 f0             	mov    DWORD PTR [ebp-0x10],esi
  40467f:	89 45 ec             	mov    DWORD PTR [ebp-0x14],eax
  404682:	85 db                	test   ebx,ebx
  404684:	74 3a                	je     0x4046c0
  404686:	8b 3c 96             	mov    edi,DWORD PTR [esi+edx*4]
  404689:	33 f6                	xor    esi,esi
  40468b:	03 f9                	add    edi,ecx
  40468d:	89 7d fc             	mov    DWORD PTR [ebp-0x4],edi
  404690:	8a 07                	mov    al,BYTE PTR [edi]
  404692:	84 c0                	test   al,al
  404694:	74 17                	je     0x4046ad
  404696:	8b df                	mov    ebx,edi
  404698:	69 f6 83 00 00 00    	imul   esi,esi,0x83
  40469e:	0f be c0             	movsx  eax,al
  4046a1:	03 f0                	add    esi,eax
  4046a3:	43                   	inc    ebx
  4046a4:	8a 03                	mov    al,BYTE PTR [ebx]
  4046a6:	84 c0                	test   al,al
  4046a8:	75 ee                	jne    0x404698
  4046aa:	8b 5d f8             	mov    ebx,DWORD PTR [ebp-0x8]
  4046ad:	81 e6 ff ff ff 7f    	and    esi,0x7fffffff
  4046b3:	3b 75 f4             	cmp    esi,DWORD PTR [ebp-0xc]
  4046b6:	74 11                	je     0x4046c9
  4046b8:	8b 75 f0             	mov    esi,DWORD PTR [ebp-0x10]
  4046bb:	42                   	inc    edx
  4046bc:	3b d3                	cmp    edx,ebx
  4046be:	72 c6                	jb     0x404686
  4046c0:	33 c0                	xor    eax,eax
  4046c2:	5f                   	pop    edi
  4046c3:	5e                   	pop    esi
  4046c4:	5b                   	pop    ebx
  4046c5:	8b e5                	mov    esp,ebp
  4046c7:	5d                   	pop    ebp
  4046c8:	c3                   	ret    
  4046c9:	83 7d 08 00          	cmp    DWORD PTR [ebp+0x8],0x0
  4046cd:	75 11                	jne    0x4046e0
  4046cf:	8b 45 ec             	mov    eax,DWORD PTR [ebp-0x14]
  4046d2:	0f b7 04 50          	movzx  eax,WORD PTR [eax+edx*2]
  4046d6:	8b 55 e8             	mov    edx,DWORD PTR [ebp-0x18]
  4046d9:	8b 04 82             	mov    eax,DWORD PTR [edx+eax*4]
  4046dc:	03 c1                	add    eax,ecx
  4046de:	eb e2                	jmp    0x4046c2
  4046e0:	57                   	push   edi
  4046e1:	51                   	push   ecx
  4046e2:	ff 55 08             	call   DWORD PTR [ebp+0x8]
  4046e5:	eb db                	jmp    0x4046c2
  4046e7:	cc                   	int3   
  4046e8:	cc                   	int3   
  4046e9:	cc                   	int3   
  4046ea:	cc                   	int3   
  4046eb:	cc                   	int3   
  4046ec:	cc                   	int3   
  4046ed:	cc                   	int3   
  4046ee:	cc                   	int3   
  4046ef:	cc                   	int3   
  4046f0:	cc                   	int3   
  4046f1:	cc                   	int3   
  4046f2:	cc                   	int3   
  4046f3:	55                   	push   ebp
  4046f4:	8b ec                	mov    ebp,esp
  4046f6:	83 ec 10             	sub    esp,0x10
  4046f9:	64 a1 30 00 00 00    	mov    eax,fs:0x30
  4046ff:	53                   	push   ebx
  404700:	56                   	push   esi
  404701:	57                   	push   edi
  404702:	8b 40 0c             	mov    eax,DWORD PTR [eax+0xc]
  404705:	8b da                	mov    ebx,edx
  404707:	89 4d fc             	mov    DWORD PTR [ebp-0x4],ecx
  40470a:	ba 54 b8 b9 1a       	mov    edx,0x1ab9b854
  40470f:	6a 00                	push   0x0
  404711:	8b 40 14             	mov    eax,DWORD PTR [eax+0x14]
  404714:	8b 00                	mov    eax,DWORD PTR [eax]
  404716:	8b 00                	mov    eax,DWORD PTR [eax]
  404718:	8b 70 10             	mov    esi,DWORD PTR [eax+0x10]
  40471b:	8b ce                	mov    ecx,esi
  40471d:	e8 1a ff ff ff       	call   0x40463c
  404722:	8b f8                	mov    edi,eax
  404724:	ba 78 1f 20 7f       	mov    edx,0x7f201f78
  404729:	57                   	push   edi
  40472a:	8b ce                	mov    ecx,esi
  40472c:	e8 0b ff ff ff       	call   0x40463c
  404731:	83 c4 08             	add    esp,0x8
  404734:	c7 45 f0 6e 74 64 6c 	mov    DWORD PTR [ebp-0x10],0x6c64746e
  40473b:	8d 4d f0             	lea    ecx,[ebp-0x10]
  40473e:	66 c7 45 f4 6c 00    	mov    WORD PTR [ebp-0xc],0x6c
  404744:	51                   	push   ecx
  404745:	ff d0                	call   eax
  404747:	57                   	push   edi
  404748:	ba 65 62 10 4b       	mov    edx,0x4b106265
  40474d:	8b c8                	mov    ecx,eax
  40474f:	e8 e8 fe ff ff       	call   0x40463c
  404754:	8b 75 0c             	mov    esi,DWORD PTR [ebp+0xc]
  404757:	8d 4d f8             	lea    ecx,[ebp-0x8]
  40475a:	83 c4 04             	add    esp,0x4
  40475d:	51                   	push   ecx
  40475e:	53                   	push   ebx
  40475f:	ff 75 fc             	push   DWORD PTR [ebp-0x4]
  404762:	56                   	push   esi
  404763:	ff 75 08             	push   DWORD PTR [ebp+0x8]
  404766:	68 02 01 00 00       	push   0x102
  40476b:	ff d0                	call   eax
  40476d:	85 c0                	test   eax,eax
  40476f:	78 0e                	js     0x40477f
  404771:	39 75 f8             	cmp    DWORD PTR [ebp-0x8],esi
  404774:	75 09                	jne    0x40477f
  404776:	5f                   	pop    edi
  404777:	8b c6                	mov    eax,esi
  404779:	5e                   	pop    esi
  40477a:	5b                   	pop    ebx
  40477b:	8b e5                	mov    esp,ebp
  40477d:	5d                   	pop    ebp
  40477e:	c3                   	ret    
  40477f:	5f                   	pop    edi
  404780:	5e                   	pop    esi
  404781:	83 c8 ff             	or     eax,0xffffffff
  404784:	5b                   	pop    ebx
  404785:	8b e5                	mov    esp,ebp
  404787:	5d                   	pop    ebp
  404788:	c3                   	ret    
  404789:	cc                   	int3   
  40478a:	cc                   	int3   
  40478b:	cc                   	int3   
  40478c:	cc                   	int3   
  40478d:	cc                   	int3   
  40478e:	cc                   	int3   
  40478f:	cc                   	int3   
  404790:	cc                   	int3   
  404791:	cc                   	int3   
  404792:	cc                   	int3   
  404793:	a4                   	movs   BYTE PTR es:[edi],BYTE PTR ds:[esi]
  404794:	ba 00 4d 5a 90       	mov    edx,0x905a4d00
  404799:	00 03                	add    BYTE PTR [ebx],al
  40479b:	00 00                	add    BYTE PTR [eax],al
  40479d:	00 82 04 00 30 ff    	add    BYTE PTR [edx-0xcffffc],al
  4047a3:	ff 00                	inc    DWORD PTR [eax]
  4047a5:	00 b8 00 38 0d 01    	add    BYTE PTR [eax+0x10d3800],bh
  4047ab:	00 40 04             	add    BYTE PTR [eax+0x4],al
  4047ae:	38 19                	cmp    BYTE PTR [ecx],bl
  4047b0:	00 08                	add    BYTE PTR [eax],cl
  4047b2:	01 00                	add    DWORD PTR [eax],eax
  4047b4:	00 00                	add    BYTE PTR [eax],al
  4047b6:	0e                   	push   cs
  4047b7:	1f                   	pop    ds
  4047b8:	ba 0e 00 b4 09       	mov    edx,0x9b4000e
  4047bd:	cd 00                	int    0x0
  4047bf:	21 b8 01 4c cd 21    	and    DWORD PTR [eax+0x21cd4c01],edi
  4047c5:	54                   	push   esp
  4047c6:	68 00 69 73 20       	push   0x20736900
  4047cb:	70 72                	jo     0x40483f
  4047cd:	6f                   	outs   dx,DWORD PTR ds:[esi]
  4047ce:	67 72 00             	addr16 jb 0x4047d1
  4047d1:	61                   	popa   
  4047d2:	6d                   	ins    DWORD PTR es:[edi],dx
  4047d3:	20 63 61             	and    BYTE PTR [ebx+0x61],ah
  4047d6:	6e                   	outs   dx,BYTE PTR ds:[esi]
  4047d7:	6e                   	outs   dx,BYTE PTR ds:[esi]
  4047d8:	6f                   	outs   dx,DWORD PTR ds:[esi]
  4047d9:	00 74 20 62          	add    BYTE PTR [eax+eiz*1+0x62],dh
  4047dd:	65 20 72 75          	and    BYTE PTR gs:[edx+0x75],dh
  4047e1:	6e                   	outs   dx,BYTE PTR ds:[esi]
  4047e2:	00 20                	add    BYTE PTR [eax],ah
  4047e4:	69 6e 20 44 4f 53 20 	imul   ebp,DWORD PTR [esi+0x20],0x20534f44
  4047eb:	00 6d 6f             	add    BYTE PTR [ebp+0x6f],ch
  4047ee:	64 65 2e 0d 0d 0a 02 	fs gs cs or eax,0x24020a0d
  4047f5:	24 
  4047f6:	04 86                	add    al,0x86
  4047f8:	ba 6c 93 9c fe       	mov    edx,0xfe9c936c
  4047fd:	0d 04 fd cf 05       	or     eax,0x5cffd04
  404802:	03 ea                	add    ebp,edx
  404804:	66 fe ce             	data16 dec dh
  404807:	f4                   	hlt    
  404808:	11 02                	adc    DWORD PTR [edx],eax
  40480a:	07                   	pop    es
  40480b:	f8                   	clc    
  40480c:	ce                   	into   
  40480d:	6f                   	outs   dx,DWORD PTR ds:[esi]
  40480e:	02 07                	add    al,BYTE PTR [edi]
  404810:	f9                   	stc    
  404811:	ce                   	into   
  404812:	ec                   	in     al,dx
  404813:	41                   	inc    ecx
  404814:	00 07                	add    BYTE PTR [edi],al
  404816:	92                   	xchg   edx,eax
  404817:	79 f8                	jns    0x404811
  404819:	ce                   	into   
  40481a:	e3 02                	jecxz  0x40481e
  40481c:	07                   	pop    es
  40481d:	f9                   	stc    
  40481e:	44                   	inc    esp
  40481f:	ce                   	into   
  404820:	f1                   	icebp  
  404821:	02 07                	add    al,BYTE PTR [edi]
  404823:	fe ce                	dec    dh
  404825:	ef                   	out    dx,eax
  404826:	02 1f                	add    bl,BYTE PTR [edi]
  404828:	fc                   	cld    
  404829:	44                   	inc    esp
  40482a:	ce                   	into   
  40482b:	fd                   	std    
  40482c:	02 3b                	add    bh,BYTE PTR [ebx]
  40482e:	fc                   	cld    
  40482f:	cf                   	iret   
  404830:	ae                   	scas   al,BYTE PTR es:[edi]
  404831:	00 07                	add    BYTE PTR [edi],al
  404833:	28 04 79             	sub    BYTE PTR [ecx+edi*2],al
  404836:	f4                   	hlt    
  404837:	02 0f                	add    cl,BYTE PTR [edi]
  404839:	28 79 02             	sub    BYTE PTR [ecx+0x2],bh
  40483c:	cf                   	iret   
  40483d:	ff 09                	dec    DWORD PTR [ecx]
  40483f:	02 07                	add    al,BYTE PTR [edi]
  404841:	ff ce                	dec    esi
  404843:	01 07                	add    DWORD PTR [edi],eax
  404845:	52                   	push   edx
  404846:	69 63 68 03 01 5f 15 	imul   esp,DWORD PTR [ebx+0x68],0x155f0103
  40484d:	cb                   	retf   
  40484e:	50                   	push   eax
  40484f:	45                   	inc    ebp
  404850:	00 00                	add    BYTE PTR [eax],al
  404852:	4c                   	dec    esp
  404853:	01 40 05             	add    DWORD PTR [eax+0x5],eax
  404856:	00 52 c4             	add    BYTE PTR [edx-0x3c],dl
  404859:	6e                   	outs   dx,BYTE PTR ds:[esi]
  40485a:	60                   	pusha  
  40485b:	85 09                	test   DWORD PTR [ecx],ecx
  40485d:	e0 00                	loopne 0x40485f
  40485f:	00 02                	add    BYTE PTR [edx],al
  404861:	21 0b                	and    DWORD PTR [ebx],ecx
  404863:	01 0e                	add    DWORD PTR [esi],ecx
  404865:	1c 00                	sbb    al,0x0
  404867:	4a                   	dec    edx
  404868:	0e                   	push   cs
  404869:	00 74 90 83          	add    BYTE PTR [eax+edx*4-0x7d],dh
  40486d:	09 38                	or     DWORD PTR [eax],edi
  40486f:	1b 00                	sbb    eax,DWORD PTR [eax]
  404871:	02 10                	add    dl,BYTE PTR [eax]
  404873:	1d 80 01 20 80       	sbb    eax,0x80200180
  404878:	09 81 04 81 05 02    	or     DWORD PTR [ecx+0x2058104],eax
  40487e:	00 00                	add    BYTE PTR [eax],al
  404880:	e6 06                	out    0x6,al
  404882:	84 19                	test   BYTE PTR [ecx],bl
  404884:	85 03                	test   DWORD PTR [ebx],eax
  404886:	00 d0                	add    al,dl
  404888:	80 0f 01             	or     BYTE PTR [edi],0x1
  40488b:	aa                   	stos   BYTE PTR es:[edi],al
  40488c:	02 0f                	add    cl,BYTE PTR [edi]
  40488e:	7e 40                	jle    0x4048d0
  404890:	00 06                	add    BYTE PTR [esi],al
  404892:	00 14 81             	add    BYTE PTR [ecx+eax*4],dl
  404895:	15 86 03 06 03       	adc    eax,0x3060386
  40489a:	02 00                	add    al,BYTE PTR [eax]
  40489c:	14 10                	adc    al,0x10
  40489e:	82 01 00             	add    BYTE PTR [ecx],0x0
  4048a1:	28 01                	sub    BYTE PTR [ecx],al
  4048a3:	04 b0                	add    al,0xb0
  4048a5:	01 00                	add    DWORD PTR [eax],eax
  4048a7:	02 f8                	add    bh,al
  4048a9:	11 50 c0             	adc    DWORD PTR [eax-0x40],edx
  4048ac:	01 00                	add    DWORD PTR [eax],eax
  4048ae:	0c 0f                	or     al,0xf
  4048b0:	00 40 00             	add    BYTE PTR [eax+0x0],al
  4048b3:	c4 79 01             	les    edi,FWORD PTR [ecx+0x1]
  4048b6:	00 70 98             	add    BYTE PTR [eax-0x68],dh
  4048b9:	c9                   	leave  
  4048ba:	38 6c 7a 01          	cmp    BYTE PTR [edx+edi*2+0x1],ch
  4048be:	8b dd                	mov    ebx,ebp
  4048c0:	80 53 10 02          	adc    BYTE PTR [ebx+0x10],0x2
  4048c4:	55                   	push   ebp
  4048c5:	13 00                	adc    eax,DWORD PTR [eax]
  4048c7:	2e 90                	cs nop
  4048c9:	74 65                	je     0x404930
  4048cb:	78 74                	js     0x404941
  4048cd:	c0 01 d8             	rol    BYTE PTR [ecx],0xd8
  4048d0:	0d 83 28 07 c2       	or     eax,0xc2072883
  4048d5:	3a c4                	cmp    al,ah
  4048d7:	2d 86 10 00 00       	sub    eax,0x1086
  4048dc:	60                   	pusha  
  4048dd:	2e 72 00             	cs jb  0x4048e0
  4048e0:	64 61                	fs popa 
  4048e2:	74 61                	je     0x404945
  4048e4:	00 00                	add    BYTE PTR [eax],al
  4048e6:	2c 68                	sub    al,0x68
  4048e8:	35 c4 3e 6a c0       	xor    eax,0xc06a3ec4
  4048ed:	01 12                	add    DWORD PTR [edx],edx
  4048ef:	0b 16                	or     edx,DWORD PTR [esi]
  4048f1:	c0 1d 40 2e 51 83 09 	rcr    BYTE PTR ds:0x83512e40,0x9
  4048f8:	00 d8                	add    al,bl
  4048fa:	12 00                	adc    al,BYTE PTR [eax]
  4048fc:	01 90 c0 07 0a 05    	add    DWORD PTR [eax+0x50a07c0],edx
  404902:	c0 01 7c             	rol    BYTE PTR [ecx],0x7c
  404905:	ce                   	into   
  404906:	09 c0                	or     eax,eax
  404908:	2e 72 73             	cs jb  0x40497e
  40490b:	72 9e                	jb     0x4048ab
  40490d:	63 c0                	arpl   ax,ax
  40490f:	02 c2                	add    al,dl
  404911:	3a c0                	cmp    al,al
  404913:	3c c1                	cmp    al,0xc1
  404915:	50                   	push   eax
  404916:	00 86 d0 13 f0 72    	add    BYTE PTR [esi+0x72f013d0],al
  40491c:	65 6c                	gs ins BYTE PTR es:[edi],dx
  40491e:	6f                   	outs   dx,DWORD PTR ds:[esi]
  40491f:	00 0a                	add    BYTE PTR [edx],cl
  404921:	c1 3e c1             	sar    DWORD PTR [esi],0xc1
  404924:	40                   	inc    eax
  404925:	c2 28 fa             	ret    0xfa28
  404928:	88 ce                	mov    dh,cl
  40492a:	09 42 a0             	or     DWORD PTR [edx-0x60],eax
  40492d:	ab                   	stos   DWORD PTR es:[edi],eax
  40492e:	3f                   	aas    
  40492f:	00 3f                	add    BYTE PTR [edi],bh
  404931:	00 3f                	add    BYTE PTR [edi],bh
  404933:	00 3f                	add    BYTE PTR [edi],bh
  404935:	00 01                	add    BYTE PTR [ecx],al
  404937:	0a 00                	or     al,BYTE PTR [eax]
  404939:	55                   	push   ebp
  40493a:	8b ec                	mov    ebp,esp
  40493c:	51                   	push   ecx
  40493d:	0f b6 02             	movzx  eax,BYTE PTR [edx]
  404940:	20 53 56             	and    BYTE PTR [ebx+0x56],dl
  404943:	8b f1                	mov    esi,ecx
  404945:	bb c1 3e 8a 4a       	mov    ebx,0x4a8a3ec1
  40494a:	00 0d 88 4e 0d 8a    	add    BYTE PTR ds:0x8a0d4e88,cl
  404950:	4a                   	dec    edx
  404951:	0e                   	push   cs
  404952:	88 00                	mov    BYTE PTR [eax],al
  404954:	06                   	push   es
  404955:	0f b6 42 01          	movzx  eax,BYTE PTR [edx+0x1]
  404959:	88 46 01             	mov    BYTE PTR [esi+0x1],al
  40495c:	21 c0                	and    eax,eax
  40495e:	00 02                	add    BYTE PTR [edx],al
  404960:	88 46 02             	mov    BYTE PTR [esi+0x2],al
  404963:	c0 00 03             	rol    BYTE PTR [eax],0x3
  404966:	88 84 46 03 c0 00 04 	mov    BYTE PTR [esi+eax*2+0x400c003],al
  40496d:	88 46 04             	mov    BYTE PTR [esi+0x4],al
  404970:	c0 00 10             	rol    BYTE PTR [eax],0x10
  404973:	05 88 46 05 c0       	add    eax,0xc0054688
  404978:	00 06                	add    BYTE PTR [esi],al
  40497a:	88 46 21             	mov    BYTE PTR [esi+0x21],al
  40497d:	21 05 07 88 46 07    	and    DWORD PTR ds:0x7468807,eax
  404983:	c0 00 08             	rol    BYTE PTR [eax],0x8
  404986:	88 84 46 08 c0 00 09 	mov    BYTE PTR [esi+eax*2+0x900c008],al
  40498d:	88 46 09             	mov    BYTE PTR [esi+0x9],al
  404990:	c0 00 10             	rol    BYTE PTR [eax],0x10
  404993:	0a 88 46 0a c0 00    	or     cl,BYTE PTR [eax+0xc00a46]
  404999:	0b 88 46 02 0b c0    	or     ecx,DWORD PTR [eax-0x3ff4fdba]
  40499f:	00 0c 88             	add    BYTE PTR [eax+ecx*4],cl
  4049a2:	46                   	inc    esi
  4049a3:	0c 8d                	or     al,0x8d
  4049a5:	46                   	inc    esi
  4049a6:	01 c0                	add    eax,eax
  4049a8:	0b 0e                	or     ecx,DWORD PTR [esi]
  4049aa:	8a 4a 0f             	mov    cl,BYTE PTR [edx+0xf]
  4049ad:	88 4e 0f             	mov    BYTE PTR [esi+0xf],cl
  4049b0:	08 0f                	or     BYTE PTR [edi],cl
  4049b2:	1f                   	pop    ds
  4049b3:	44                   	inc    esp
  4049b4:	e0 0d                	loopne 0x4049c3
  4049b6:	68 ff 8a 08 00       	push   0x88aff
  4049bb:	8a 50 01             	mov    dl,BYTE PTR [eax+0x1]
  4049be:	8a 70 02             	mov    dh,BYTE PTR [eax+0x2]
  4049c1:	88 6d 00             	mov    BYTE PTR [ebp+0x0],ch
  4049c4:	fc                   	cld    
  4049c5:	88 4d fd             	mov    BYTE PTR [ebp-0x3],cl
  4049c8:	88 55 ff             	mov    BYTE PTR [ebp-0x1],dl
  4049cb:	88 00                	mov    BYTE PTR [eax],al
  4049cd:	75 fe                	jne    0x4049cd
  4049cf:	f6 c3 03             	test   bl,0x3
  4049d2:	75 41                	jne    0x404a15
  4049d4:	0f 00                	(bad)  
  4049d6:	b6 d1                	mov    dh,0xd1
  4049d8:	0f b6 4d ff          	movzx  ecx,BYTE PTR [ebp-0x1]
  4049dc:	8a 89 b0 b0 77 01    	mov    cl,BYTE PTR [ecx+0x177b0b0]
  4049e2:	10 40 03             	adc    BYTE PTR [eax+0x3],al
  4049e5:	80 01 fe             	add    BYTE PTR [ecx],0xfe
  4049e8:	85 01                	test   DWORD PTR [ecx],eax
  4049ea:	0a ff                	or     bh,bh
  4049ec:	80 01 fc             	add    BYTE PTR [ecx],0xfc
  4049ef:	85 01                	test   DWORD PTR [ecx],eax
  4049f1:	fe 8b cb c1 00 e9    	dec    BYTE PTR [ebx-0x16ff3e35]
  4049f7:	02 8a a9 b0 79 01    	add    cl,BYTE PTR [edx+0x179b0a9]
  4049fd:	10 04 32             	adc    BYTE PTR [edx+esi*1],al
  404a00:	aa                   	stos   BYTE PTR es:[edi],al
  404a01:	61                   	popa   
  404a02:	02 8a 55 ff 8a 75    	add    cl,BYTE PTR [edx+0x758aff55]
  404a08:	00 fe                	add    dh,bh
  404a0a:	8a 48 f3             	mov    cl,BYTE PTR [eax-0xd]
  404a0d:	43                   	inc    ebx
  404a0e:	32 cd                	xor    cl,ch
  404a10:	88 40 48             	mov    BYTE PTR [eax+0x48],al
  404a13:	03 8a 48 f4 32 40    	add    ecx,DWORD PTR [edx+0x4032f448]
  404a19:	0b 48 00             	or     ecx,DWORD PTR [eax+0x0]
  404a1c:	04 8a                	add    al,0x8a
  404a1e:	48                   	dec    eax
  404a1f:	f5                   	cmc    
  404a20:	32 ca                	xor    cl,dl
  404a22:	88 48 00             	mov    BYTE PTR [eax+0x0],cl
  404a25:	05 8a 48 f6 32       	add    eax,0x32f6488a
  404a2a:	ce                   	into   
  404a2b:	88 48 00             	mov    BYTE PTR [eax+0x0],cl
  404a2e:	06                   	push   es
  404a2f:	83 c0 04             	add    eax,0x4
  404a32:	83 fb 2c             	cmp    ebx,0x2c
  404a35:	0f 00 82 75 ff ff ff 	sldt   WORD PTR [edx-0x8b]
  404a3c:	5e                   	pop    esi
  404a3d:	5b                   	pop    ebx
  404a3e:	8b 30                	mov    esi,DWORD PTR [eax]
  404a40:	e5 5d                	in     eax,0x5d
  404a42:	c3                   	ret    
  404a43:	cc                   	int3   
  404a44:	0b 00                	or     eax,DWORD PTR [eax]
  404a46:	e0 23                	loopne 0x404a6b
  404a48:	83 ec 02             	sub    esp,0x2
  404a4b:	0c c0                	or     al,0xc0
  404a4d:	23 c2                	and    eax,edx
  404a4f:	8b f1                	mov    esi,ecx
  404a51:	57                   	push   edi
  404a52:	8b f8                	mov    edi,eax
  404a54:	00 89 45 f8 89 75    	add    BYTE PTR [ecx+0x7589f845],cl
  404a5a:	f4                   	hlt    
  404a5b:	2b fe                	sub    edi,esi
  404a5d:	41                   	inc    ecx
  404a5e:	62 25 0f 1f 40 00    	bound  esp,QWORD PTR ds:0x401f0f
  404a64:	ba 82 26 04 00       	mov    edx,0x42682
  404a69:	0f 30                	wrmsr  
  404a6b:	01 41 83             	add    DWORD PTR [ecx-0x7d],eax
  404a6e:	ea 01 75 00 f5 83 eb 	jmp    0xeb83:0xf5007501
  404a75:	01 75 eb             	add    DWORD PTR [ebp-0x15],esi
  404a78:	c6 45 a0 ff          	mov    BYTE PTR [ebp-0x60],0xff
  404a7c:	01 0f                	add    DWORD PTR [edi],ecx
  404a7e:	1f                   	pop    ds
  404a7f:	80 e1 2b             	and    cl,0x2b
  404a82:	8b 43 05             	mov    eax,DWORD PTR [ebx+0x5]
  404a85:	90                   	nop
  404a86:	66 0f 1f 84 e2 2d 8b 	nop    WORD PTR [edx+eiz*8+0x22cf8b2d]
  404a8d:	cf 22 
  404a8f:	06                   	push   es
  404a90:	01 e6                	add    esi,esp
  404a92:	01 0f                	add    DWORD PTR [edi],ecx
  404a94:	b6 01                	mov    dh,0x1
  404a96:	8d 49 04             	lea    ecx,[ecx+0x4]
  404a99:	8a 92 80 02 19 41    	mov    dl,BYTE PTR [edx+0x41190280]
  404a9f:	fc                   	cld    
  404aa0:	61                   	popa   
  404aa1:	08 ec                	or     ah,ch
  404aa3:	47                   	inc    edi
  404aa4:	81 08 10 d6 80 7d    	or     DWORD PTR [eax],0x7d80d610
  404aaa:	ff 80 27 46 05 8a    	inc    DWORD PTR [eax-0x75fab9d9]
  404ab0:	7a 4e                	jp     0x404b00
  404ab2:	a3 30 46 80 2a       	mov    ds:0x2a804630,eax
  404ab7:	00 2e                	add    BYTE PTR [esi],ch
  404ab9:	00 28                	add    BYTE PTR [eax],ch
  404abb:	61                   	popa   
  404abc:	2b 46 0a             	sub    eax,DWORD PTR [esi+0xa]
  404abf:	0a c1                	or     al,cl
  404ac1:	34 4e                	xor    al,0x4e
  404ac3:	23 33                	and    esi,DWORD PTR [ebx]
  404ac5:	46                   	inc    esi
  404ac6:	0e                   	push   cs
  404ac7:	88 4e 28             	mov    BYTE PTR [esi+0x28],cl
  404aca:	0a 8a 4e 43 31 46    	or     cl,BYTE PTR [edx+0x4631434e]
  404ad0:	60                   	pusha  
  404ad1:	2b 0e                	sub    ecx,DWORD PTR [esi]
  404ad3:	8a 6a 4e             	mov    ch,BYTE PTR [edx+0x4e]
  404ad6:	83 35 46 60 2f 0f c0 	xor    DWORD PTR ds:0xf2f6046,0xffffffc0
  404add:	00 c0                	add    al,al
  404adf:	33 0b                	xor    ecx,DWORD PTR [ebx]
  404ae1:	40                   	inc    eax
  404ae2:	88 4e 07             	mov    BYTE PTR [esi+0x7],cl
  404ae5:	0f 84 cc 60 0e 8d    	je     0x8d4eabb7
  404aeb:	60                   	pusha  
  404aec:	7e 02                	jle    0x404af0
  404aee:	8d 72 04             	lea    esi,[edx+0x4]
  404af1:	40                   	inc    eax
  404af2:	10 e1                	adc    cl,ah
  404af4:	2f                   	das    
  404af5:	7f 00                	jg     0x404af7
  404af7:	01 8d 7f 04 8a 47    	add    DWORD PTR [ebp+0x478a047f],ecx
  404afd:	fa                   	cli    
  404afe:	8a 00                	mov    al,BYTE PTR [eax]
  404b00:	df 8a 6f fc 8a c8    	fisttp WORD PTR [edx-0x37750391]
  404b06:	8a 57 00             	mov    dl,BYTE PTR [edi+0x0]
  404b09:	fb                   	sti    
  404b0a:	32 dd                	xor    bl,ch
  404b0c:	88 45 fe             	mov    BYTE PTR [ebp-0x2],al
  404b0f:	32 ca                	xor    cl,dl
  404b11:	00 8a f3 32 f0 8a    	add    BYTE PTR [edx-0x750fcd0d],cl
  404b17:	c1 c0 e8             	rol    eax,0xe8
  404b1a:	00 07                	add    BYTE PTR [edi],al
  404b1c:	02 c9                	add    cl,cl
  404b1e:	0f b6 c0             	movzx  eax,al
  404b21:	32 f2                	xor    dh,dl
  404b23:	00 6b c0             	add    BYTE PTR [ebx-0x40],ch
  404b26:	1b 32                	sbb    esi,DWORD PTR [edx]
  404b28:	c1 8a ca 32 e1 60 03 	ror    DWORD PTR [edx+0x60e132ca],0x3
  404b2f:	cd 32                	int    0x32
  404b31:	c6                   	(bad)  
  404b32:	88 20                	mov    BYTE PTR [eax],ah
  404b34:	06                   	push   es
  404b35:	86 03                	xchg   BYTE PTR [ebx],al
  404b37:	43                   	inc    ebx
  404b38:	03 40 4d             	add    eax,DWORD PTR [eax+0x4d]
  404b3b:	fe                   	(bad)  
  404b3c:	32 c2                	xor    al,dl
  404b3e:	32 cf                	xor    cl,bh
  404b40:	41                   	inc    ecx
  404b41:	03 fb                	add    edi,ebx
  404b43:	14 8a                	adc    al,0x8a
  404b45:	c3                   	ret    
  404b46:	41                   	inc    ecx
  404b47:	03 db                	add    ebx,ebx
  404b49:	44                   	inc    esp
  404b4a:	03 c3                	add    eax,ebx
  404b4c:	32 c5                	xor    al,ch
  404b4e:	25 a1 02 fc 0c       	and    eax,0xcfc02a1
  404b53:	06                   	push   es
  404b54:	32 c7                	xor    al,bh
  404b56:	a1 02 fd 83 10       	mov    eax,ds:0x1083fd02
  404b5b:	ee                   	out    dx,al
  404b5c:	01 0f                	add    DWORD PTR [edi],ecx
  404b5e:	85 e1                	test   ecx,esp
  404b60:	2f                   	das    
  404b61:	8a 6d ff             	mov    ch,BYTE PTR [ebp-0x1]
  404b64:	01 62 25             	add    DWORD PTR [edx+0x25],esp
  404b67:	8b 75 f4             	mov    esi,DWORD PTR [ebp-0xc]
  404b6a:	8b c6                	mov    eax,esi
  404b6c:	0f b6 00             	movzx  eax,BYTE PTR [eax]
  404b6f:	d5 c1                	aad    0xc1
  404b71:	e2 04                	loop   0x404b77
  404b73:	03 55 f8             	add    edx,DWORD PTR [ebp-0x8]
  404b76:	bf 01 02 2c 0a       	mov    edi,0xa2c0201
  404b7b:	42                   	inc    edx
  404b7c:	30 08                	xor    BYTE PTR [eax],cl
  404b7e:	40                   	inc    eax
  404b7f:	83 ef 01             	sub    edi,0x1
  404b82:	05 2c fe c5 88       	add    eax,0x88c5fe2c
  404b87:	6d                   	ins    DWORD PTR es:[edi],dx
  404b88:	ff                   	(bad)  
  404b89:	e9 a0 20 fe ff       	jmp    0x3e6c2e
  404b8e:	ff 8b 4d 23 04 81    	dec    DWORD PTR [ebx-0x7efbdcb3]
  404b94:	c1 0a a0             	ror    DWORD PTR [edx],0xa0
  404b97:	c1 2a 90             	shr    DWORD PTR [edx],0x90
  404b9a:	e3 31                	jecxz  0x404bcd
  404b9c:	01 41 30             	add    DWORD PTR [ecx+0x30],eax
  404b9f:	06                   	push   es
  404ba0:	26 46                	es inc esi
  404ba2:	e3 31                	jecxz  0x404bd5
  404ba4:	60                   	pusha  
  404ba5:	06                   	push   es
  404ba6:	eb 5f                	jmp    0x404c07
  404ba8:	47                   	inc    edi
  404ba9:	3b b8 c0 18 a2 01    	cmp    edi,DWORD PTR [eax+0x1a218c0]
  404baf:	10 88 3c e1 3b e4    	adc    BYTE PTR [eax-0x1bc41ec4],cl
  404bb5:	f8                   	clc    
  404bb6:	51                   	push   ecx
  404bb7:	00 56 8b             	add    BYTE PTR [esi-0x75],dl
  404bba:	75 08                	jne    0x404bc4
  404bbc:	6a 00                	push   0x0
  404bbe:	e8 1a 00 21 00       	call   0x614bdd
  404bc3:	00 83 c4 04 8d 4d    	add    BYTE PTR [ebx+0x4d8d04c4],al
  404bc9:	00 0c 51             	add    BYTE PTR [ecx+edx*2],cl
  404bcc:	6a 00                	push   0x0
  404bce:	56                   	push   esi
  404bcf:	50                   	push   eax
  404bd0:	e8 ce 01 c0 12       	call   0x13004da3
  404bd5:	ff 70 04             	push   DWORD PTR [eax+0x4]
  404bd8:	ff 30                	push   DWORD PTR [eax]
  404bda:	e8 d4 32 6c 21       	call   0x21ac7eb3
  404bdf:	03 18                	add    ebx,DWORD PTR [eax]
  404be1:	5e                   	pop    esi
  404be2:	4d                   	dec    ebp
  404be3:	44                   	inc    esp
  404be4:	e2 07                	loop   0x404bed
  404be6:	e0 81                	loopne 0x404b69
  404be8:	04 ec                	add    al,0xec
  404bea:	78 e0                	js     0x404bcc
  404bec:	97                   	xchg   edi,eax
  404bed:	a1 04 90 01 10       	mov    eax,ds:0x10019004
  404bf2:	40                   	inc    eax
  404bf3:	33 c4                	xor    eax,esp
  404bf5:	89 84 24 74 a0 01 56 	mov    DWORD PTR [esp+0x5601a074],eax
  404bfc:	88 57 68             	mov    BYTE PTR [edi+0x68],dl
  404bff:	00 e0                	add    al,ah
  404c01:	94                   	xchg   esp,eax
  404c02:	8d 84 24 c1 9f 10 c7 	lea    eax,[esp-0x38ef603f]
  404c09:	84 24 3c             	test   BYTE PTR [esp+edi*1],ah
  404c0c:	c0 00 7e             	rol    BYTE PTR [eax],0x7e
  404c0f:	ed                   	in     eax,dx
  404c10:	0f 50 d7             	movmskps edx,xmm7
  404c13:	6a 00                	push   0x0
  404c15:	50                   	push   eax
  404c16:	a0 01 48 a0 01       	mov    al,ds:0x1a04801
  404c1b:	a6                   	cmps   BYTE PTR ds:[esi],BYTE PTR es:[edi]
  404c1c:	28 e8                	sub    al,ch
  404c1e:	ea 5e 40 01 4c 40 01 	jmp    0x140:0x4c01405e
  404c25:	43                   	inc    ebx
  404c26:	6b 14 04 a4          	imul   edx,DWORD PTR [esp+eax*1],0xffffffa4
  404c2a:	40                   	inc    eax
  404c2b:	01 50 40             	add    DWORD PTR [eax+0x40],edx
  404c2e:	01 a7 b1 40 45 a1    	add    DWORD PTR [edi-0x5ebabf4f],esp
  404c34:	02 54 81 07          	add    dl,BYTE PTR [ecx+eax*4+0x7]
  404c38:	f0 db a3 40 01 58 a1 	lock (bad) [ebx-0x5ea7fec0]
  404c3f:	40                   	inc    eax
  404c40:	01 a4 88 77 47 40 01 	add    DWORD PTR [eax+ecx*4+0x1404777],esp
  404c47:	5c                   	pop    esp
  404c48:	40                   	inc    eax
  404c49:	01 50 cd             	add    DWORD PTR [eax-0x33],edx
  404c4c:	d4 13                	aam    0x13
  404c4e:	8f 40 01             	pop    DWORD PTR [eax+0x1]
  404c51:	60                   	pusha  
  404c52:	40                   	inc    eax
  404c53:	01 4e 28             	add    DWORD PTR [esi+0x28],ecx
  404c56:	6c                   	ins    BYTE PTR es:[edi],dx
  404c57:	6e                   	outs   dx,BYTE PTR ds:[esi]
  404c58:	55                   	push   ebp
  404c59:	40                   	inc    eax
  404c5a:	01 64 40 01          	add    DWORD PTR [eax+eax*2+0x1],esp
  404c5e:	b2 9b                	mov    dl,0x9b
  404c60:	14 4f                	adc    al,0x4f
  404c62:	b8 40 01 68 40       	mov    eax,0x40680140
  404c67:	01 f5                	add    ebp,esi
  404c69:	1e                   	push   ds
  404c6a:	94                   	xchg   esp,eax
  404c6b:	0a 69 40             	or     ch,BYTE PTR [ecx+0x40]
  404c6e:	01 6c 40 01          	add    DWORD PTR [eax+eax*2+0x1],ebp
  404c72:	e5 a5                	in     eax,0xa5
  404c74:	03 25 85 40 01 70    	add    esp,DWORD PTR ds:0x70014085
  404c7a:	40                   	inc    eax
  404c7b:	01 05 dc 1f 40 40    	add    DWORD PTR ds:0x40401fdc,eax
  404c81:	01 42 74             	add    DWORD PTR [edx+0x74],eax
  404c84:	40                   	inc    eax
  404c85:	01 e3                	add    ebx,esp
  404c87:	96                   	xchg   esi,eax
  404c88:	e9 65 40 01 78       	jmp    0x78418cf2
  404c8d:	61                   	popa   
  404c8e:	40                   	inc    eax
  404c8f:	01 5a 89             	add    DWORD PTR [edx-0x77],ebx
  404c92:	89 eb                	mov    ebx,ebp
  404c94:	a0 00 31 0a 02       	mov    al,ds:0x20a3100
  404c99:	28 38                	sub    BYTE PTR [eax],bh
  404c9b:	50                   	push   eax
  404c9c:	20 a0 00 80 a0 00    	and    BYTE PTR [eax+0xa08000],ah
  404ca2:	4f                   	dec    edi
  404ca3:	14 14                	adc    al,0x14
  404ca5:	0e                   	push   cs
  404ca6:	fd                   	std    
  404ca7:	a0 00 2c a0 00       	mov    al,ds:0xa02c00
  404cac:	6c                   	ins    BYTE PTR es:[edi],dx
  404cad:	61                   	popa   
  404cae:	6e                   	outs   dx,BYTE PTR ds:[esi]
  404caf:	0a 6c a0 00          	or     ch,BYTE PTR [eax+eiz*4+0x0]
  404cb3:	30 a0 00 65 66 74    	xor    BYTE PTR [eax+0x74666500],ah
  404cb9:	68 85 a0 00 34       	push   0x3400a085
  404cbe:	a0 00 75 73 74       	mov    al,ds:0x74737500
  404cc3:	62 a0 00 02 38 a0    	bound  esp,QWORD PTR [eax-0x5fc7fe00]
  404cc9:	00 6b 73             	add    BYTE PTR [ebx+0x73],ch
  404ccc:	65 63 e8             	gs arpl ax,bp
  404ccf:	b4 31                	mov    ah,0x31
  404cd1:	f0 5e                	lock pop esi
  404cd3:	83 c4 0c             	add    esp,0xc
  404cd6:	20 01                	and    BYTE PTR [ecx],al
  404cd8:	41                   	inc    ecx
  404cd9:	0f cb                	bswap  ebx
  404cdb:	c2 14 3b             	ret    0x3b14
  404cde:	75 a0                	jne    0x404c80
  404ce0:	00 04 a0             	add    BYTE PTR [eax+eiz*4],al
  404ce3:	00 64 dc 85          	add    BYTE PTR [esp+ebx*8-0x7b],ah
  404ce7:	3a 1c 30             	cmp    bl,BYTE PTR [eax+esi*1]
  404cea:	10 e0                	adc    al,ah
  404cec:	60                   	pusha  
  404ced:	19 10                	sbb    DWORD PTR [eax],edx
  404cef:	01 21                	add    DWORD PTR [ecx],esp
  404cf1:	83 24 0d 94 84 8b a0 	and    DWORD PTR [ecx*1-0x5f747b6c],0x0
  404cf8:	00 
  404cf9:	0c 21                	or     al,0x21
  404cfb:	09 da                	or     edx,ebx
  404cfd:	73 b1                	jae    0x404cb0
  404cff:	10 a1 01 6a fd 5d    	adc    BYTE PTR [ecx+0x5dfd6a01],ah
  404d05:	ca f0 a0             	retf   0xa0f0
  404d08:	00 14 a0             	add    BYTE PTR [eax+eiz*4],dl
  404d0b:	00 50 ae             	add    BYTE PTR [eax-0x52],dl
  404d0e:	16                   	push   ss
  404d0f:	69 7d a0 00 18 a0 00 	imul   edi,DWORD PTR [ebp-0x60],0xa01800
  404d16:	de 28                	fisubr WORD PTR [eax]
  404d18:	e6 0f                	out    0xf,al
  404d1a:	f8                   	clc    
  404d1b:	a0 00 1c a0 00       	mov    al,ds:0xa01c00
  404d20:	57                   	push   edi
  404d21:	6d                   	ins    DWORD PTR es:[edi],dx
  404d22:	e0 e2                	loopne 0x404d06
  404d24:	af                   	scas   eax,DWORD PTR es:[edi]
  404d25:	c5 fe 6f 03          	vmovdqu ymm0,YMMWORD PTR [ebx]
  404d29:	06                   	push   es
  404d2a:	30 01                	xor    BYTE PTR [ecx],al
  404d2c:	11 05 28 82 ac 4b    	adc    DWORD PTR ds:0x4bac8228,eax
  404d32:	a1 00 e4 c1 74       	mov    eax,ds:0x74c1e400
  404d37:	fc                   	cld    
  404d38:	fc                   	cld    
  404d39:	0a 73 a0             	or     dh,BYTE PTR [ebx-0x60]
  404d3c:	00 e8                	add    al,ch
  404d3e:	a0 00 51 7f a4       	mov    al,ds:0xa47f5100
  404d43:	ed                   	in     eax,dx
  404d44:	85 a0 00 ec a0 00    	test   DWORD PTR [eax+0xa0ec00],esp
  404d4a:	69 bb 14 6a a0 00 ea 	imul   edi,DWORD PTR [ebx+0xa06a14],0xa0f0ea
  404d51:	f0 a0 00 
  404d54:	dd 03                	fld    QWORD PTR [ebx]
  404d56:	06                   	push   es
  404d57:	f4                   	hlt    
  404d58:	a0 00 04 06 b1       	mov    al,ds:0xb1060400
  404d5d:	67 4d                	addr16 dec ebp
  404d5f:	04 06                	add    al,0x6
  404d61:	fc                   	cld    
  404d62:	a0 00 02 06 fd       	mov    al,ds:0xfd060200
  404d67:	ef                   	out    dx,eax
  404d68:	93                   	xchg   ebx,eax
  404d69:	05 c5 04 fd 7f       	add    eax,0x7ffd04c5
  404d6e:	83 00 50             	add    DWORD PTR [eax],0x50
  404d71:	c5 f8 77             	vzeroupper 
  404d74:	e8 8e 40 20 70       	call   0x70608e07
  404d79:	71 21                	jno    0x404d9c
  404d7b:	23 13                	and    edx,DWORD PTR [ebx]
  404d7d:	50                   	push   eax
  404d7e:	68 bc 80 46 80       	push   0x804680bc
  404d83:	e8 c1 fd ff ff       	call   0x404b49
  404d88:	8d 8c e2 12 a0 83 c4 	lea    ecx,[edx+eiz*8-0x3b7c5fee]
  404d8f:	08 8d 51 20 3f 40    	or     BYTE PTR [ebp+0x403f2051],cl
  404d95:	a1 27 00 84 c0       	mov    eax,ds:0xc0840027
  404d9a:	75 f9                	jne    0x404d95
  404d9c:	2b ca                	sub    ecx,edx
  404d9e:	83 f9 30             	cmp    ecx,0x30
  404da1:	40                   	inc    eax
  404da2:	0f 84 db 53 0f 71    	je     0x714fa183
  404da8:	04 9c                	add    al,0x9c
  404daa:	b0 84                	mov    al,0x84
  404dac:	54                   	push   esp
  404dad:	1b a4 0a 03 fc e9 79 	sbb    esp,DWORD PTR [edx+ecx*1+0x79e9fc03]
  404db4:	a4                   	movs   BYTE PTR es:[edi],BYTE PTR ds:[esi]
  404db5:	0a 10                	or     dl,BYTE PTR [eax]
  404db7:	4a                   	dec    edx
  404db8:	6a f0                	push   0xfffffff0
  404dba:	e3 a4                	jecxz  0x404d60
  404dbc:	0a 25 b5 15 42 70    	or     ah,BYTE PTR ds:0x704215b5
  404dc2:	a4                   	movs   BYTE PTR es:[edi],BYTE PTR ds:[esi]
  404dc3:	0a 9b 31 ab 97 a4    	or     bl,BYTE PTR [ebx-0x5b6854cf]
  404dc9:	0a 80 f8 38 47 77    	or     al,BYTE PTR [eax+0x774738f8]
  404dcf:	48                   	dec    eax
  404dd0:	15 97 14 b5 15       	adc    eax,0x15b51497
  404dd5:	4f                   	dec    edi
  404dd6:	15 4f 15 bf 4f       	adc    eax,0x4fbf154f
  404ddb:	15 4f 15 43 15       	adc    eax,0x1543154f
  404de0:	2f                   	das    
  404de1:	11 2f                	adc    DWORD PTR [edi],ebp
  404de3:	11 22                	adc    DWORD PTR [edx],esp
  404de5:	11 e9                	adc    ecx,ebp
  404de7:	c1 25 08 8d 94 24 a1 	shl    DWORD PTR ds:0x24948d08,0xa1
  404dee:	80 8d 4c 24 20 a0 e8 	or     BYTE PTR [ebp-0x5fdfdbb4],0xe8
  404df5:	b3 f9                	mov    bl,0xf9
  404df7:	ff                   	(bad)  
  404df8:	ff 50 03             	call   DWORD PTR [eax+0x3]
  404dfb:	d0 41 4d             	rol    BYTE PTR [ecx+0x4d],1
  404dfe:	60                   	pusha  
  404dff:	01 02                	add    DWORD PTR [edx],eax
  404e01:	03 8d bc a2 12 10    	add    ecx,DWORD PTR [ebp+0x1012a2bc]
  404e07:	01 d4                	add    esp,edx
  404e09:	c1 d1 a5             	rcl    ecx,0xa5
  404e0c:	05 06 07 8d b4       	add    eax,0xb48d0706
  404e11:	c2 01 10             	ret    0x1001
  404e14:	01 a2 d8 b1 a3 09    	add    DWORD PTR [edx+0x9a3b1d8],esp
  404e1a:	0a 0b                	or     cl,BYTE PTR [ebx]
  404e1c:	a0 00 dc a0 00       	mov    al,ds:0xa0dc00
  404e21:	00 0c 0d 0e 0f c7 44 	add    BYTE PTR [ecx*1+0x44c70f0e],cl
  404e28:	24 1c                	and    al,0x1c
  404e2a:	81 91 3b 90 8b c7 2b 	adc    DWORD PTR [ecx-0x38746fc5],0x31baf72b
  404e31:	f7 ba 31 
  404e34:	7e 01                	jle    0x404e37
  404e36:	f4                   	hlt    
  404e37:	53                   	push   ebx
  404e38:	8a 0c 30             	mov    cl,BYTE PTR [eax+esi*1]
  404e3b:	8d 40 01             	lea    eax,[eax+0x1]
  404e3e:	30 04 48             	xor    BYTE PTR [eax+ecx*2],al
  404e41:	ff d1                	call   ecx
  404e43:	3c f2                	cmp    al,0xf2
  404e45:	8d 54 24 20          	lea    edx,[esp+0x20]
  404e49:	20 8b cf e8 67 fa    	and    BYTE PTR [ebx-0x5981731],cl
  404e4f:	80 3f f7             	cmp    BYTE PTR [edi],0xf7
  404e52:	83 90 c7 10 83 6c 50 	adc    DWORD PTR [eax+0x6c8310c7],0x50
  404e59:	0c 75                	or     al,0x75
  404e5b:	cb                   	retf   
  404e5c:	50                   	push   eax
  404e5d:	18 29                	sbb    BYTE PTR [ecx],ch
  404e5f:	81 28 be 3c c1 4d    	sub    DWORD PTR [eax],0x4dc13cbe
  404e65:	94                   	xchg   esp,eax
  404e66:	82 07 8b             	add    BYTE PTR [edi],0x8b
  404e69:	01 00                	add    DWORD PTR [eax],eax
  404e6b:	3b 02                	cmp    eax,DWORD PTR [edx]
  404e6d:	75 52                	jne    0x404ec1
  404e6f:	83 c1 04             	add    ecx,0x4
  404e72:	83 80 c2 04 83 ee 04 	add    DWORD PTR [eax-0x117cfb3e],0x4
  404e79:	73 ef                	jae    0x404e6a
  404e7b:	64 18 18             	sbb    BYTE PTR fs:[eax],bl
  404e7e:	92                   	xchg   edx,eax
  404e7f:	ad                   	lods   eax,DWORD PTR ds:[esi]
  404e80:	4e                   	dec    esi
  404e81:	01 33                	add    DWORD PTR [ebx],esi
  404e83:	62 18                	bound  ebx,QWORD PTR [eax]
  404e85:	b9 f1 3c 21 64       	mov    ecx,0x64213cf1
  404e8a:	18 50 65             	sbb    BYTE PTR [eax+0x65],dl
  404e8d:	e1 ab                	loope  0x404e3a
  404e8f:	64 18 63 b6          	sbb    BYTE PTR fs:[ebx-0x4a],ah
  404e93:	84 12                	test   BYTE PTR [edx],dl
  404e95:	37                   	aaa    
  404e96:	64 18 dc             	fs sbb ah,bl
  404e99:	7c eb                	jl     0x404e86
  404e9b:	fa                   	cli    
  404e9c:	18 23                	sbb    BYTE PTR [ebx],ah
  404e9e:	fc                   	cld    
  404e9f:	e9 74 f0 46 f0       	jmp    0xf0873f18
  404ea4:	00 21                	add    BYTE PTR [ecx],ah
  404ea6:	0f 61 04 b0          	punpcklwd mm0,DWORD PTR [eax+esi*4]
  404eaa:	18 a1 00 85 10 01    	sbb    BYTE PTR [ecx+0x1108500],ah
  404eb0:	24 60                	and    al,0x60
  404eb2:	00 13                	add    BYTE PTR [ebx],dl
  404eb4:	ae                   	scas   al,BYTE PTR es:[edi]
  404eb5:	ea 72 a0 00 a2 28 b1 	jmp    0xb128:0xa200a072
  404ebc:	3c 23                	cmp    al,0x23
  404ebe:	aa                   	stos   BYTE PTR es:[edi],al
  404ebf:	a5                   	movs   DWORD PTR es:[edi],DWORD PTR ds:[esi]
  404ec0:	c4 33                	les    esi,FWORD PTR [ebx]
  404ec2:	0f b0 18             	cmpxchg BYTE PTR [eax],bl
  404ec5:	f8                   	clc    
  404ec6:	0f 28 8c 85 02 11 08 	movaps xmm1,XMMWORD PTR [ebp+eax*4-0x4bf7eefe]
  404ecd:	b4 
  404ece:	31 11                	xor    DWORD PTR [ecx],edx
  404ed0:	08 f4                	or     ah,dh
  404ed2:	1b 0f                	sbb    ecx,DWORD PTR [edi]
  404ed4:	11 08                	adc    DWORD PTR [eax],ecx
  404ed6:	f4                   	hlt    
  404ed7:	1b 11                	sbb    edx,DWORD PTR [ecx]
  404ed9:	08 f1                	or     cl,dh
  404edb:	1b 66 0f             	sbb    esp,DWORD PTR [esi+0xf]
  404ede:	ef                   	out    dx,eax
  404edf:	8c 09                	mov    WORD PTR [ecx],cs
  404ee1:	d2 02                	rol    BYTE PTR [edx],cl
  404ee3:	0f 29 c3             	movaps xmm3,xmm0
  404ee6:	03 50 e8             	add    edx,DWORD PTR [eax-0x18]
  404ee9:	bc 1d 0f 50 0d       	mov    esp,0xd500f1d
  404eee:	e0 26                	loopne 0x404f16
  404ef0:	a0 45 a0 28 33       	mov    al,ds:0x3328a045
  404ef5:	c0 5f 5e 38          	rcr    BYTE PTR [edi+0x5e],0x38
  404ef9:	33 cc                	xor    ecx,esp
  404efb:	e8 61 b4 2a 49       	call   0x496b0361
  404f00:	f1                   	icebp  
  404f01:	48                   	dec    eax
  404f02:	6d                   	ins    DWORD PTR es:[edi],dx
  404f03:	0c 00                	or     al,0x0
  404f05:	01 75 05             	add    DWORD PTR [ebp+0x5],esi
  404f08:	e8 62 fb ff ff       	call   0x404a6f
  404f0d:	02 b8 81 92 5d c2    	add    bh,BYTE PTR [eax-0x3da26d7f]
  404f13:	0c 00                	or     al,0x0
  404f15:	3b 0d 01 b1 49 f2    	cmp    ecx,DWORD PTR ds:0xf249b101
  404f1b:	75 02                	jne    0x404f1f
  404f1d:	f2 c3                	bnd ret 
  404f1f:	f2 e9 06 8b 00 bf    	bnd jmp 0xbf40da2b
  404f25:	70 02                	jo     0x404f29
  404f27:	8b 45 0c             	mov    eax,DWORD PTR [ebp+0xc]
  404f2a:	83 e8 00             	sub    eax,0x0
  404f2d:	00 74 33 83          	add    BYTE PTR [ebx+esi*1-0x7d],dh
  404f31:	e8 01 74 20 05       	call   0x560c337
  404f36:	41                   	inc    ecx
  404f37:	00 11                	add    BYTE PTR [ecx],dl
  404f39:	41                   	inc    ecx
  404f3a:	00 05 33 c0 40 eb    	add    BYTE PTR ds:0xeb40c033,al
  404f40:	08 30                	or     BYTE PTR [eax],dh
  404f42:	e8 02 80 ac eb       	call   0xebeccf49
  404f47:	05 e8 dc 02 05       	add    eax,0x502dce8
  404f4c:	21 6a c0             	and    DWORD PTR [edx-0x40],ebp
  404f4f:	eb 1f                	jmp    0x404f70
  404f51:	ff 75 10             	push   DWORD PTR [ebp+0x10]
  404f54:	20 ff                	and    bh,bh
  404f56:	75 08                	jne    0x404f60
  404f58:	e8 18 f0 04 59       	call   0x59453f75
  404f5d:	eb 00                	jmp    0x404f5f
  404f5f:	10 83 7d 10 00 0f    	adc    BYTE PTR [ebx+0xf00107d],al
  404f65:	95                   	xchg   ebp,eax
  404f66:	c0 29 90             	shr    BYTE PTR [ecx],0x90
  404f69:	01 50 e8             	add    DWORD PTR [eax-0x18],edx
  404f6c:	21 27                	and    DWORD PTR [edi],esp
  404f6e:	59                   	pop    ecx
  404f6f:	31 06                	xor    DWORD PTR [esi],eax
  404f71:	6a 10                	push   0x10
  404f73:	48                   	dec    eax
  404f74:	68 d0 7d 70 31       	push   0x31707dd0
  404f79:	59                   	pop    ecx
  404f7a:	09 d1                	or     ecx,edx
  404f7c:	a1 e8 02 31 10       	mov    eax,ds:0x103102e8
  404f81:	04 59                	add    al,0x59
  404f83:	84 c0                	test   al,al
  404f85:	0f 84 d1 09 30 03    	je     0x370595c
  404f8b:	e8 28 80 04 88       	call   0x8844cfb8
  404f90:	45                   	inc    ebp
  404f91:	e3 b3                	jecxz  0x404f46
  404f93:	00 01                	add    BYTE PTR [ecx],al
  404f95:	88 5d e7             	mov    BYTE PTR [ebp-0x19],bl
  404f98:	83 65 fc 00          	and    DWORD PTR [ebp-0x4],0x0
  404f9c:	20 83 3d d8 9b 01    	and    BYTE PTR [ebx+0x19bd83d],al
  404fa2:	40                   	inc    eax
  404fa3:	04 85                	add    al,0x85
  404fa5:	c5 4d 31             	lds    ecx,FWORD PTR [ebp+0x31]
  404fa8:	21 05 c1 00 b1 0a    	and    DWORD PTR ds:0xab100c1,eax
  404fae:	e8 5d 70 02 84       	call   0x8442c010
  404fb3:	40                   	inc    eax
  404fb4:	c0 74 4d e8 b4       	shl    BYTE PTR [ebp+ecx*2-0x18],0xb4
  404fb9:	08 d0                	or     al,dl
  404fbb:	00 73 09             	add    BYTE PTR [ebx+0x9],dh
  404fbe:	30 21                	xor    BYTE PTR [ecx],ah
  404fc0:	e8 8c 40 00 68       	call   0x68409051
  404fc5:	2c 21                	sub    al,0x21
  404fc7:	01 48 10             	add    DWORD PTR [eax+0x10],ecx
  404fca:	68 1c 40 00 e8       	push   0xe800401c
  404fcf:	e7 10                	out    0x10,eax
  404fd1:	a8 59                	test   al,0x59
  404fd3:	80 59 85 c0          	sbb    BYTE PTR [ecx-0x7b],0xc0
  404fd7:	75 29                	jne    0x405002
  404fd9:	e8 05 c3 02 a8       	call   0xa84312e3
  404fde:	20 68 18             	and    BYTE PTR [eax+0x18],ch
  404fe1:	d1 01                	rol    DWORD PTR [ecx],1
  404fe3:	14 d1                	adc    al,0xd1
  404fe5:	01 84 d2 01 13 03 05 	add    DWORD PTR [edx+edx*8+0x5031301],eax
  404fec:	21 a5 32 db 00 07    	and    DWORD PTR [ebp+0x700db32],esp
  404ff2:	c7 45 fc 11 a0 1b ff 	mov    DWORD PTR [ebp-0x4],0xff1ba011
  404ff9:	e8 3d 00 01 84       	call   0x8441503b
  404ffe:	db 75 10             	(bad)  [ebp+0x10]
  405001:	43                   	inc    ebx
  405002:	e8 2e 07 60 13       	call   0x13a05735
  405007:	f0 83 3e 40          	lock cmp DWORD PTR [esi],0x40
  40500b:	00 74 1f 56          	add    BYTE PTR [edi+ebx*1+0x56],dh
  40500f:	e8 48 83 0a 74       	call   0x744ad35c
  405014:	40                   	inc    eax
  405015:	14 ff                	adc    al,0xff
  405017:	75 0c                	jne    0x405025
  405019:	6a 02                	push   0x2
  40501b:	50                   	push   eax
  40501c:	0e                   	push   cs
  40501d:	8b 40 36             	mov    eax,DWORD PTR [eax+0x36]
  405020:	8b ce                	mov    ecx,esi
  405022:	ff 15 10 e0 04 ff    	call   DWORD PTR ds:0xff04e010
  405028:	60                   	pusha  
  405029:	d6                   	(bad)  
  40502a:	ff 05 a0 98 40 5d    	inc    DWORD PTR ds:0x5d4098a0
  405030:	30 11                	xor    BYTE PTR [ecx],dl
  405032:	0f 00 8a 5d e7 ff 75 	str    WORD PTR [edx+0x75ffe75d]
  405039:	e3 e8                	jecxz  0x405023
  40503b:	ad                   	lods   eax,DWORD PTR ds:[esi]
  40503c:	01 e1                	add    ecx,esp
  40503e:	02 c3                	add    al,bl
  405040:	33 c0                	xor    eax,eax
  405042:	8b 4d f0             	mov    ecx,DWORD PTR [ebp-0x10]
  405045:	64 14 89             	fs adc al,0x89
  405048:	0d 31 2a 59 f0       	or     eax,0xf0592a31
  40504d:	65 c9                	gs leave 
  40504f:	c3                   	ret    
  405050:	6a a8                	push   0xffffffa8
  405052:	07                   	pop    es
  405053:	e8 dd a0 01 cc       	call   0xcc41f135
  405058:	60                   	pusha  
  405059:	10 f0                	adc    al,dh
  40505b:	61                   	popa   
  40505c:	10 8a 52 00 0c a1    	adc    BYTE PTR [edx-0x5ef3ffae],cl
  405062:	c1 03 85             	rol    DWORD PTR [ebx],0x85
  405065:	c0 7f e0 1a          	sar    BYTE PTR [edi-0x20],0x1a
  405069:	10 eb                	adc    bl,ch
  40506b:	69 48 a3 a2 04 ff 47 	imul   ecx,DWORD PTR [eax-0x5d],0x47ff04a2
  405072:	89 24 7d e4 21 10 e8 	mov    DWORD PTR [edi*2-0x17efde1c],esp
  405079:	14 80                	adc    al,0x80
  40507b:	0d 88 45 10 e0       	or     eax,0xe0104588
  405080:	89 7d fc             	mov    DWORD PTR [ebp-0x4],edi
  405083:	d3 10                	rcl    DWORD PTR [eax],cl
  405085:	02 75 6b             	add    dh,BYTE PTR [ebp+0x6b]
  405088:	94                   	xchg   esp,eax
  405089:	e8 cb 11 0f 88       	call   0x884f6259
  40508e:	00 1a                	add    BYTE PTR [edx],bl
  405090:	e8 df 30 0a 2c       	call   0x2c4a8174
  405095:	83 25 52 12 d2 02 39 	and    DWORD PTR ds:0x2d21252,0x39
  40509c:	90                   	nop
  40509d:	06                   	push   es
  40509e:	6a 00                	push   0x0
  4050a0:	03 41 18             	add    eax,DWORD PTR [ecx+0x18]
  4050a3:	02 0b                	add    cl,BYTE PTR [ebx]
  4050a5:	59                   	pop    ecx
  4050a6:	0f b6 f0             	movzx  esi,al
  4050a9:	f7 de                	neg    esi
  4050ab:	80 1b f6             	sbb    BYTE PTR [ebx],0xf6
  4050ae:	23 f7                	and    esi,edi
  4050b0:	89 75 e4             	mov    DWORD PTR [ebp-0x1c],esi
  4050b3:	05 0e 0a 22 e1       	add    eax,0xe1220a0e
  4050b8:	20 c6                	and    dh,al
  4050ba:	9d                   	popf   
  4050bb:	09 8b 7d e4 ff 10    	or     DWORD PTR [ebx+0x10ffe47d],ecx
  4050c1:	75 e0                	jne    0x4050a3
  4050c3:	e8 f4 d0 12 59       	call   0x595321bc
  4050c8:	c3                   	ret    
  4050c9:	8b b0 75 e4 e8 89    	mov    esi,DWORD PTR [eax-0x76171b8b]
  4050cf:	40                   	inc    eax
  4050d0:	06                   	push   es
  4050d1:	f1                   	icebp  
  4050d2:	0a 2d f2 0a 50 0c    	or     ch,BYTE PTR ds:0xc500af2
  4050d8:	68 18 7e f0 0a       	push   0xaf07e18
  4050dd:	a2 31 11 7d 80       	mov    ds:0x807d1131,al
  4050e2:	0c 85                	or     al,0x85
  4050e4:	ff 75 0f             	push   DWORD PTR [ebp+0xf]
  4050e7:	39 3d 91 0a c0 7f    	cmp    DWORD PTR ds:0x7fc00a91,edi
  4050ed:	07                   	pop    es
  4050ee:	33 c0                	xor    eax,eax
  4050f0:	e9 d9 50 04 f2       	jmp    0xf244a1ce
  4050f5:	1a 00                	sbb    al,BYTE PTR [eax]
  4050f7:	ff 01                	inc    DWORD PTR [ecx]
  4050f9:	74 0a                	je     0x405105
  4050fb:	83 ff 02             	cmp    edi,0x2
  4050fe:	74 40                	je     0x405140
  405100:	05 8b 5d 10 eb       	add    eax,0xeb105d8b
  405105:	31 40 00             	xor    DWORD PTR [eax+0x0],eax
  405108:	53                   	push   ebx
  405109:	2a 57 b1             	sub    dl,BYTE PTR [edi-0x4f]
  40510c:	08 c9                	or     cl,cl
  40510e:	11 07                	adc    DWORD PTR [edi],eax
  405110:	f0 20 08             	lock and BYTE PTR [eax],cl
  405113:	85 f6                	test   esi,esi
  405115:	d8 0f                	fmul   DWORD PTR [edi]
  405117:	84 a3 c0 00 63 01    	test   BYTE PTR [ebx+0x16300c0],ah
  40511d:	9d                   	popf   
  40511e:	b0 51                	mov    al,0x51
  405120:	66 01 1a             	add    WORD PTR [edx],bx
  405123:	8c 66 01             	mov    WORD PTR [esi+0x1],fs
  405126:	5e                   	pop    esi
  405127:	65 01 e0             	gs add eax,esp
  40512a:	04 75                	add    al,0x75
  40512c:	27                   	daa    
  40512d:	85 a0 f6 75 23 53    	test   DWORD PTR [eax+0x532375f6],esp
  405133:	50                   	push   eax
  405134:	71 01                	jno    0x405137
  405136:	46                   	inc    esi
  405137:	70 01                	jo     0x40513a
  405139:	14 85                	adc    al,0x85
  40513b:	db 15 25 ba b0 0c    	fist   DWORD PTR ds:0xcb0ba25
  405141:	59                   	pop    ecx
  405142:	53                   	push   ebx
  405143:	56                   	push   esi
  405144:	03 81 01 51 c6 85    	add    eax,DWORD PTR [ecx-0x7a39aeff]
  40514a:	ff 74 05 83          	push   DWORD PTR [ebp+eax*1-0x7d]
  40514e:	ff 28                	jmp    FWORD PTR [eax]
  405150:	03 75 48             	add    esi,DWORD PTR [ebp+0x48]
  405153:	33 04 42             	xor    eax,DWORD PTR [edx+eax*2]
  405156:	a7                   	cmps   DWORD PTR ds:[esi],DWORD PTR es:[edi]
  405157:	05 74 35 07 23       	add    eax,0x23073574
  40515c:	01 70 8c             	add    DWORD PTR [eax-0x74],esi
  40515f:	40                   	inc    eax
  405160:	08 eb                	or     bl,ch
  405162:	24 8b                	and    al,0x8b
  405164:	4d                   	dec    ebp
  405165:	ec                   	in     al,dx
  405166:	00 8b 01 51 ff 30    	add    BYTE PTR [ebx+0x30ff5101],cl
  40516c:	68 f8 17 d6 00       	push   0xd617f8
  405171:	e0 2a                	loopne 0x40519d
  405173:	20 00                	and    BYTE PTR [eax],al
  405175:	0c e1                	or     al,0xe1
  405177:	01 43 e0             	add    DWORD PTR [ebx-0x20],eax
  40517a:	14 b0                	adc    al,0xb0
  40517c:	7b c0                	jnp    0x40513e
  40517e:	c3                   	ret    
  40517f:	8b 65 e8             	mov    esp,DWORD PTR [ebp-0x18]
  405182:	33 f6                	xor    esi,esi
  405184:	d7                   	xlat   BYTE PTR ds:[ebx]
  405185:	12 8f 12 e1 40 31    	adc    cl,BYTE PTR [edi+0x3140e112]
  40518b:	56                   	push   esi
  40518c:	8b 35 50 80 1f a0    	mov    esi,DWORD PTR ds:0xa01f8050
  405192:	09 82 30 de 13 50    	or     DWORD PTR [edx+0x5013de30],eax
  405198:	04 c0                	add    al,0xc0
  40519a:	20 72 04             	and    BYTE PTR [edx+0x4],dh
  40519d:	25 21 5e c1 2e       	and    eax,0x2ec15e21
  4051a2:	71 36                	jno    0x4051da
  4051a4:	da 7d 72             	fidivr DWORD PTR [ebp+0x72]
  4051a7:	36 84 70 2b          	test   BYTE PTR ss:[eax+0x2b],dh
  4051ab:	b7 06                	mov    bh,0x6
  4051ad:	ae                   	scas   al,BYTE PTR es:[edi]
  4051ae:	90                   	nop
  4051af:	05 70 70 e3 24       	add    eax,0x24e37070
  4051b4:	02 f0                	add    dh,al
  4051b6:	1a 15 04 20 40 03    	sbb    dl,BYTE PTR ds:0x3402004
  4051bc:	d1 03                	rol    DWORD PTR [ebx],1
  4051be:	60                   	pusha  
  4051bf:	d3 00                	rol    DWORD PTR [eax],cl
  4051c1:	10 68 09             	adc    BYTE PTR [eax+0x9],ch
  4051c4:	04 00                	add    al,0x0
  4051c6:	c0 ff 15             	sar    bh,0x15
  4051c9:	42                   	inc    edx
  4051ca:	08 a0 00 50 ff 15    	or     BYTE PTR [eax+0x15ff5000],ah
  4051d0:	0c 60                	or     al,0x60
  4051d2:	00 5d 91             	add    BYTE PTR [ebp-0x6f],bl
  4051d5:	51                   	push   ecx
  4051d6:	07                   	pop    es
  4051d7:	81 ec 24 30 0a 6a    	sub    esp,0x6a0a3024
  4051dd:	17                   	pop    ss
  4051de:	20 06                	and    BYTE PTR [esi],al
  4051e0:	01 20                	add    DWORD PTR [eax],esp
  4051e2:	01 85 c0 74 05 6a    	add    DWORD PTR [ebp+0x6a0574c0],eax
  4051e8:	02 59 00             	add    bl,BYTE PTR [ecx+0x0]
  4051eb:	cd 29                	int    0x29
  4051ed:	a3 a8 99 01 10       	mov    ds:0x100199a8,eax
  4051f2:	89 24 0d a4 51 00 15 	mov    DWORD PTR [ecx*1+0x150051a4],esp
  4051f9:	a0 51 00 1d 9c       	mov    al,ds:0x9c1d0051
  4051fe:	49                   	dec    ecx
  4051ff:	51                   	push   ecx
  405200:	00 35 98 51 00 3d    	add    BYTE PTR ds:0x3d005198,dh
  405206:	94                   	xchg   esp,eax
  405207:	50                   	push   eax
  405208:	00 66 48             	add    BYTE PTR [esi+0x48],ah
  40520b:	8c 15 c0 62 00 0d    	mov    WORD PTR ds:0xd0062c0,ss
  405211:	b4 62                	mov    ah,0x62
  405213:	00 1d 92 90 62 00    	add    BYTE PTR ds:0x629092,bl
  405219:	05 8c 62 00 25       	add    eax,0x2500628c
  40521e:	88 62 00             	mov    BYTE PTR [edx+0x0],ah
  405221:	84 2d 84 60 00 9c    	test   BYTE PTR ds:0x9c006084,ch
  405227:	8f 05 b8 60 00 20    	pop    DWORD PTR ds:0x200060b8
  40522d:	8b 45 00             	mov    eax,DWORD PTR [ebp+0x0]
  405230:	a3 ac 72 00 04       	mov    ds:0x40072ac,eax
  405235:	a3 00 b0 99 01       	mov    ds:0x199b000,eax
  40523a:	1c bd                	sbb    al,0xbd
  40523c:	00 10                	add    BYTE PTR [eax],dl
  40523e:	8d 45 08             	lea    eax,[ebp+0x8]
  405241:	a3 bc 99 01 00       	mov    ds:0x199bc,eax
  405246:	10 8b 85 dc fc ff    	adc    BYTE PTR [ebx-0x3237b],cl
  40524c:	ff c7                	inc    edi
  40524e:	00 05 f8 98 01 10    	add    BYTE PTR ds:0x100198f8,al
  405254:	01 00                	add    DWORD PTR [eax],eax
  405256:	01 48 00             	add    DWORD PTR [eax+0x0],ecx
  405259:	a1 b0 00 a0 a3       	mov    eax,ds:0xa3a000b0
  40525e:	b4 00                	mov    ah,0x0
  405260:	68 c7 04 05 a8       	push   0xa80504c7
  405265:	00 14 09             	add    BYTE PTR [ecx+ecx*1],dl
  405268:	04 00                	add    al,0x0
  40526a:	c0 c7 04             	rol    bh,0x4
  40526d:	05 ac 02 74 00       	add    eax,0x7402ac
  405272:	00 c7                	add    bh,al
  405274:	05 b8 01 04 24       	add    eax,0x240401b8
  405279:	6a 04                	push   0x4
  40527b:	58                   	pop    eax
  40527c:	6b c0 00             	imul   eax,eax,0x0
  40527f:	c7                   	(bad)  
  405280:	14 80                	adc    al,0x80
  405282:	bc 00 1e 02 06       	mov    esp,0x6021e00
  405287:	1e                   	push   ds
  405288:	8b 0d 04 80 90 01    	mov    ecx,DWORD PTR ds:0x1908004
  40528e:	10 89 4c 05 f8 00    	adc    BYTE PTR [ecx+0xf8054c],cl
  405294:	1e                   	push   ds
  405295:	14 c1                	adc    al,0xc1
  405297:	e0 00                	loopne 0x405299
  405299:	1e                   	push   ds
  40529a:	00 04 1e             	add    BYTE PTR [esi+ebx*1],al
  40529d:	68 54 21 00 01       	push   0x1002154
  4052a2:	10 e8                	adc    al,ch
  4052a4:	e0 fe                	loopne 0x4052a4
  4052a6:	ff                   	(bad)  
  4052a7:	ff c9                	dec    ecx
  4052a9:	00 c3                	add    bl,al
  4052ab:	55                   	push   ebp
  4052ac:	8b ec                	mov    ebp,esp
  4052ae:	83 ec 14             	sub    esp,0x14
  4052b1:	83 00 65             	add    DWORD PTR [eax],0x65
  4052b4:	f4                   	hlt    
  4052b5:	00 8d 45 f4 83 65    	add    BYTE PTR [ebp+0x6583f445],cl
  4052bb:	80 f8 00             	cmp    al,0x0
  4052be:	50                   	push   eax
  4052bf:	ff 15 20 20 00 8b    	call   DWORD PTR ds:0x8b002020
  4052c5:	00 45 f8             	add    BYTE PTR [ebp-0x8],al
  4052c8:	33 45 f4             	xor    eax,DWORD PTR [ebp-0xc]
  4052cb:	89 45 fc             	mov    DWORD PTR [ebp-0x4],eax
  4052ce:	a8 ff                	test   al,0xff
  4052d0:	15 1c 00 0e 31       	adc    eax,0x310e001c
  4052d5:	01 08                	add    DWORD PTR [eax],ecx
  4052d7:	18 03                	sbb    BYTE PTR [ebx],al
  4052d9:	08 28                	or     BYTE PTR [eax],ch
  4052db:	8d 45 ec             	lea    eax,[ebp-0x14]
  4052de:	00 24 14             	add    BYTE PTR [esp+edx*1],ah
  4052e1:	02 24 f0             	add    ah,BYTE PTR [eax+esi*8]
  4052e4:	8d 00                	lea    eax,[eax]
  4052e6:	4d                   	dec    ebp
  4052e7:	fc                   	cld    
  4052e8:	33 45 ec             	xor    eax,DWORD PTR [ebp-0x14]
  4052eb:	33 45 fc             	xor    eax,DWORD PTR [ebp-0x4]
  4052ee:	10 33                	adc    BYTE PTR [ebx],dh
  4052f0:	c1 c9 c3             	ror    ecx,0xc3
  4052f3:	03 72 56             	add    esi,DWORD PTR [edx+0x56]
  4052f6:	57                   	push   edi
  4052f7:	bf 00 4e e6 40       	mov    edi,0x40e64e00
  4052fc:	bb be 00 00 ff       	mov    ebx,0xff0000be
  405301:	00 ff                	add    bh,bh
  405303:	3b cf                	cmp    ecx,edi
  405305:	74 04                	je     0x40530b
  405307:	85 ce                	test   esi,ecx
  405309:	75 00                	jne    0x40530b
  40530b:	26 e8 94 ff ff ff    	es call 0x4052a5
  405311:	8b c8                	mov    ecx,eax
  405313:	40                   	inc    eax
  405314:	3b cf                	cmp    ecx,edi
  405316:	75 07                	jne    0x40531f
  405318:	b9 4f 00 1c eb       	mov    ecx,0xeb1c004f
  40531d:	02 0e                	add    cl,BYTE PTR [esi]
  40531f:	00 15 0a 0d 11 47    	add    BYTE PTR ds:0x47110d0a,dl
  405325:	00 00                	add    BYTE PTR [eax],al
  405327:	40                   	inc    eax
  405328:	c1 e0 10             	shl    eax,0x10
  40532b:	0b c8                	or     ecx,eax
  40532d:	89 82 1c f7 08 d1    	mov    DWORD PTR [edx-0x2ef708e4],eax
  405333:	5f                   	pop    edi
  405334:	89 82 52 5e c3 68    	mov    DWORD PTR [edx+0x68c35e52],eax
  40533a:	c8 c0 9b 01          	enter  0x9bc0,0x1
  40533e:	10 ff                	adc    bh,bh
  405340:	15 24 80 32 83       	adc    eax,0x83328024
  405345:	05 00 e8 53 09       	add    eax,0x953e800
  40534a:	00 00                	add    BYTE PTR [eax],al
  40534c:	59                   	pop    ecx
  40534d:	c3                   	ret    
  40534e:	b8 22 d0 80 05       	mov    eax,0x580d022
  405353:	c3                   	ret    
  405354:	e8 f5 01 27 48       	call   0x4867554e
  405359:	04 00                	add    al,0x0
  40535b:	83 08 24             	or     DWORD PTR [eax],0x24
  40535e:	89 48 04             	mov    DWORD PTR [eax+0x4],ecx
  405361:	e8 aa 1b 00 07       	call   0x7406f10
  405366:	82 06 02             	add    BYTE PTR [esi],0x2
  405369:	80 06 01             	add    BYTE PTR [esi],0x1
  40536c:	69 8b 45 08 00 56 8b 	imul   ecx,DWORD PTR [ebx+0x56000845],0x33c488b
  405373:	48 3c 03 
  405376:	c8 0f b7 80          	enter  0xb70f,0x80
  40537a:	41                   	inc    ecx
  40537b:	14 8d                	adc    al,0x8d
  40537d:	51                   	push   ecx
  40537e:	18 03                	sbb    BYTE PTR [ebx],al
  405380:	d0 00                	rol    BYTE PTR [eax],1
  405382:	04 00                	add    al,0x0
  405384:	06                   	push   es
  405385:	6b f0 28             	imul   esi,eax,0x28
  405388:	03 f2                	add    esi,edx
  40538a:	3b d6                	cmp    edx,esi
  40538c:	00 74 19 8b          	add    BYTE PTR [ecx+ebx*1-0x75],dh
  405390:	4d                   	dec    ebp
  405391:	0c 3b                	or     al,0x3b
  405393:	4a                   	dec    edx
  405394:	0c 00                	or     al,0x0
  405396:	72 0a                	jb     0x4053a2
  405398:	8b 42 08             	mov    eax,DWORD PTR [edx+0x8]
  40539b:	03 42 0c             	add    eax,DWORD PTR [edx+0xc]
  40539e:	00 3b                	add    BYTE PTR [ebx],bh
  4053a0:	c8 72 0c 83          	enter  0xc72,0x83
  4053a4:	c2 28 3b             	ret    0x3b28
  4053a7:	00 d6                	add    dh,dl
  4053a9:	75 ea                	jne    0x405395
  4053ab:	33 c0                	xor    eax,eax
  4053ad:	5e                   	pop    esi
  4053ae:	5d                   	pop    ebp
  4053af:	c3                   	ret    
  4053b0:	00 8b c2 eb f9 56    	add    BYTE PTR [ebx+0x56f9ebc2],cl
  4053b6:	e8 34 06 00 00       	call   0x4059ef
  4053bb:	00 85 c0 74 20 64    	add    BYTE PTR [ebp+0x642074c0],al
  4053c1:	a1 12 18 00 a9       	mov    eax,ds:0xa9001812
  4053c6:	be dc 00 3b 8b       	mov    esi,0x8b3b00dc
  4053cb:	50                   	push   eax
  4053cc:	04 00                	add    al,0x0
  4053ce:	eb 04                	jmp    0x4053d4
  4053d0:	3b d0                	cmp    edx,eax
  4053d2:	74 10                	je     0x4053e4
  4053d4:	33 c0                	xor    eax,eax
  4053d6:	00 8b ca f0 0f b1    	add    BYTE PTR [ebx-0x4ef00f36],cl
  4053dc:	0e                   	push   cs
  4053dd:	85 c0                	test   eax,eax
  4053df:	00 75 f0             	add    BYTE PTR [ebp-0x10],dh
  4053e2:	32 c0                	xor    al,al
  4053e4:	5e                   	pop    esi
  4053e5:	c3                   	ret    
  4053e6:	b0 01                	mov    al,0x1
  4053e8:	10 5e c3             	adc    BYTE PTR [esi-0x3d],bl
  4053eb:	e8 03 03 18 07       	call   0x75856f3
  4053f0:	e8 25 00 04 00       	call   0x44541a
  4053f5:	00 eb                	add    bl,ch
  4053f7:	18 e8                	sbb    al,ch
  4053f9:	ef                   	out    dx,eax
  4053fa:	05 c0 00 00 50       	add    eax,0x500000c0
  4053ff:	e8 0c 6b 80 5a       	call   0x5ac0bf10
  405404:	00 0b                	add    BYTE PTR [ebx],cl
  405406:	00 03                	add    BYTE PTR [ebx],al
  405408:	32 c0                	xor    al,al
  40540a:	c3                   	ret    
  40540b:	e8 f2 6c 00 00       	call   0x40c102
  405410:	00 b0 01 c3 6a 00    	add    BYTE PTR [eax+0x6ac301],dh
  405416:	e8 d0 41 80 29       	call   0x29c095eb
  40541b:	84 c0                	test   al,al
  40541d:	59                   	pop    ecx
  40541e:	0f 95 80 0a bc 4a 08 	setne  BYTE PTR [eax+0x84abc0a]
  405425:	c1 02 75             	rol    DWORD PTR [edx],0x75
  405428:	42                   	inc    edx
  405429:	08 8f 6f c2 02 07    	or     BYTE PTR [edi+0x702c26f],cl
  40542f:	24 e8                	and    al,0xe8
  405431:	b2 00                	mov    dl,0x0
  405433:	05 eb ed 00 0b       	add    eax,0xb00edeb
  405438:	e8 87 39 80 04       	call   0x4c08dc4
  40543d:	e8 a3 80 03 00       	call   0x43d4e5
  405442:	03 80 36 e8 9b 03    	add    eax,DWORD PTR [eax+0x39be836]
  405448:	c0 15 00 1e 19 83 7d 	rcl    BYTE PTR ds:0x83191e00,0x7d
  40544f:	0c 01                	or     al,0x1
  405451:	75 00                	jne    0x405453
  405453:	13 ff                	adc    edi,edi
  405455:	75 10                	jne    0x405467
  405457:	8b 4d 14             	mov    ecx,DWORD PTR [ebp+0x14]
  40545a:	50                   	push   eax
  40545b:	40                   	inc    eax
  40545c:	ff 75 08             	push   DWORD PTR [ebp+0x8]
  40545f:	ff 15 10 80 75 ff    	call   DWORD PTR ds:0xff758010
  405465:	00 55 14             	add    BYTE PTR [ebp+0x14],dl
  405468:	ff 75 1c             	push   DWORD PTR [ebp+0x1c]
  40546b:	ff 75 18             	push   DWORD PTR [ebp+0x18]
  40546e:	08 e8                	or     al,ch
  405470:	70 63                	jo     0x4054d5
  405472:	40                   	inc    eax
  405473:	1e                   	push   ds
  405474:	59                   	pop    ecx
  405475:	5d                   	pop    ebp
  405476:	c3                   	ret    
  405477:	e8 42 6a 02 0c       	call   0xc42bebe
  40547c:	74 0c                	je     0x40548a
  40547e:	68 e4 81 51 a8       	push   0xa85181e4
  405483:	22 6d 81             	and    ch,BYTE PTR [ebp-0x7f]
  405486:	51                   	push   ecx
  405487:	e8 74 67 01 05       	call   0x541bc00
  40548c:	0f 84 16 47 c0 01    	je     0x2009ba8
  405492:	01 24 59             	add    DWORD PTR [ecx+ebx*2],esp
  405495:	40                   	inc    eax
  405496:	19 59 e9             	sbb    DWORD PTR [ecx-0x17],ebx
  405499:	5e                   	pop    esi
  40549a:	03 80 19 41 84 7d    	add    eax,DWORD PTR [eax+0x7d844119]
  4054a0:	08 00                	or     BYTE PTR [eax],al
  4054a2:	75 07                	jne    0x4054ab
  4054a4:	c6 84 05 e0 00 0c 01 	mov    BYTE PTR [ebp+eax*1+0x10c00e0],0xe8
  4054ab:	e8 
  4054ac:	55                   	push   ebp
  4054ad:	03 00                	add    eax,DWORD PTR [eax]
  4054af:	20 44 f8 07          	and    BYTE PTR [eax+edi*8+0x7],al
  4054b3:	02 26                	add    ah,BYTE PTR [esi]
  4054b5:	04 32                	add    al,0x32
  4054b7:	c0 40 14 d7          	rol    BYTE PTR [eax+0x14],0xd7
  4054bb:	2a 6e 02             	sub    ch,BYTE PTR [esi+0x2]
  4054be:	03 0a                	add    ecx,DWORD PTR [edx]
  4054c0:	c0 0d 15 40 0c 59 eb 	ror    BYTE PTR ds:0x590c4015,0xeb
  4054c7:	10 e9                	adc    cl,ch
  4054c9:	b0 01                	mov    al,0x1
  4054cb:	5d                   	pop    ebp
  4054cc:	01 27                	add    DWORD PTR [edi],esp
  4054ce:	80 3d e1 11 80 0c 00 	cmp    BYTE PTR ds:0xc8011e1,0x0
  4054d5:	74 04                	je     0x4054db
  4054d7:	c1 03 56             	rol    DWORD PTR [ebx],0x56
  4054da:	8b 75 00             	mov    esi,DWORD PTR [ebp+0x0]
  4054dd:	08 85 f6 74 05 83    	or     BYTE PTR [ebp-0x7cfa8b0a],al
  4054e3:	fe 01                	inc    BYTE PTR [ecx]
  4054e5:	30 75 62             	xor    BYTE PTR [ebp+0x62],dh
  4054e8:	e8 e4 40 45 40       	call   0x408595d1
  4054ed:	21 26                	and    DWORD PTR [esi],esp
  4054ef:	85 68 f6             	test   DWORD PTR [eax-0xa],ebp
  4054f2:	75 22                	jne    0x405516
  4054f4:	43                   	inc    ebx
  4054f5:	22 4b 41             	and    cl,BYTE PTR [ebx+0x41]
  4054f8:	22 40 32             	and    al,BYTE PTR [eax+0x32]
  4054fb:	0f 14 68 f0          	unpcklps xmm5,XMMWORD PTR [eax-0x10]
  4054ff:	81 03 3c 83 03 74    	add    DWORD PTR [ebx],0x7403833c
  405505:	2b 32                	sub    esi,DWORD PTR [edx]
  405507:	00 c0                	add    al,al
  405509:	eb 30                	jmp    0x40553b
  40550b:	83 c9 ff             	or     ecx,0xffffffff
  40550e:	89 0d d1 41 09 89    	mov    DWORD PTR ds:0x890941d1,ecx
  405514:	0d e8 42 01 ec       	or     eax,0xec0142e8
  405519:	42                   	inc    edx
  40551a:	01 01                	add    DWORD PTR [ecx],eax
  40551c:	0a 28                	or     ch,BYTE PTR [eax]
  40551e:	89 0d f4 42 01 f8    	mov    DWORD PTR ds:0xf80142f4,ecx
  405524:	40                   	inc    eax
  405525:	01 c6                	add    esi,eax
  405527:	05 05 c1 1b 01       	add    eax,0x11bc105
  40552c:	c0 5f 5d c3          	rcr    BYTE PTR [edi+0x5d],0xc3
  405530:	6a 05                	push   0x5
  405532:	e8 02 e0 40 55       	call   0x55813539
  405537:	cc                   	int3   
  405538:	6a 08                	push   0x8
  40553a:	68 38 7e 05 c0       	push   0xc0057e38
  40553f:	13 55 80             	adc    edx,DWORD PTR [ebp-0x80]
  405542:	c2 83 65             	ret    0x6583
  405545:	fc                   	cld    
  405546:	00 b8 40 4d 5a 00    	add    BYTE PTR [eax+0x5a4d40],bh
  40554c:	00 66 39             	add    BYTE PTR [esi+0x39],ah
  40554f:	00 41 00             	add    BYTE PTR [ecx+0x0],al
  405552:	20 10                	and    BYTE PTR [eax],dl
  405554:	75 5d                	jne    0x4055b3
  405556:	a1 3c 80 01 81       	mov    eax,ds:0x8101803c
  40555b:	b8 01 01 03 50       	mov    eax,0x50030101
  405560:	45                   	inc    ebp
  405561:	00 00                	add    BYTE PTR [eax],al
  405563:	75 4c                	jne    0x4055b1
  405565:	b9 22 0b 80 d0       	mov    ecx,0xd0800b22
  40556a:	66 39 88 40 79 10 75 	cmp    WORD PTR [eax+0x75107940],cx
  405571:	0a 3e                	or     bh,BYTE PTR [esi]
  405573:	00 8e b9 c1 06 2b    	add    BYTE PTR [esi+0x2b06c1b9],cl
  405579:	c1 50 51 40          	rcl    DWORD PTR [eax+0x51],0x40
  40557d:	e8 b3 fd ff ff       	call   0x405335
  405582:	59                   	pop    ecx
  405583:	81 24 27 00 83 78 24 	and    DWORD PTR [edi+eiz*1],0x24788300
  40558a:	00 7c 21 c7          	add    BYTE PTR [ecx+eiz*1-0x39],bh
  40558e:	45                   	inc    ebp
  40558f:	02 fc                	add    bh,ah
  405591:	c0 cc ff             	ror    ah,0xff
  405594:	b0 01                	mov    al,0x1
  405596:	eb 1f                	jmp    0x4055b7
  405598:	8b 00                	mov    eax,DWORD PTR [eax]
  40559a:	45                   	inc    ebp
  40559b:	ec                   	in     al,dx
  40559c:	8b 00                	mov    eax,DWORD PTR [eax]
  40559e:	33 c9                	xor    ecx,ecx
  4055a0:	81 38 01 80 15 c0    	cmp    DWORD PTR [eax],0xc0158001
  4055a6:	0f 94 c1             	sete   cl
  4055a9:	8b c1                	mov    eax,ecx
  4055ab:	c3                   	ret    
  4055ac:	08 8b 65 e8 04 08    	or     BYTE PTR [ebx+0x804e865],cl
  4055b2:	32 c0                	xor    al,al
  4055b4:	8b 4d 0c             	mov    ecx,DWORD PTR [ebp+0xc]
  4055b7:	f0 64 40             	lock fs inc eax
  4055ba:	b2 00                	mov    dl,0x0
  4055bc:	00 59 5f             	add    BYTE PTR [ecx+0x5f],bl
  4055bf:	5e                   	pop    esi
  4055c0:	5b                   	pop    ebx
  4055c1:	99                   	cdq    
  4055c2:	42                   	inc    edx
  4055c3:	d9 e8                	fld1   
  4055c5:	e3 80                	jecxz  0x405547
  4055c7:	51                   	push   ecx
  4055c8:	c0 12 0f             	rcl    BYTE PTR [edx],0xf
  4055cb:	80 01 57             	add    BYTE PTR [ecx],0x57
  4055ce:	d0 09                	ror    BYTE PTR [ecx],1
  4055d0:	33 c0                	xor    eax,eax
  4055d2:	b9 81 94 87 c5       	mov    ecx,0xc5879481
  4055d7:	4d                   	dec    ebp
  4055d8:	41                   	inc    ecx
  4055d9:	2d 00 00 74 06       	sub    eax,0x6740000
  4055de:	80 7d 0c 00          	cmp    BYTE PTR [ebp+0xc],0x0
  4055e2:	75 b2                	jne    0x405596
  4055e4:	12 a0 39 e8 98 c0    	adc    ah,BYTE PTR [eax-0x3f6717c7]
  4055ea:	21 e1                	and    ecx,esp
  4055ec:	00 b4 c0 4a c4 59 59 	add    BYTE PTR [eax+eax*8+0x5959c44a],dh
  4055f3:	e1 29                	loope  0x40561e
  4055f5:	b8 cc a2 40 5f       	mov    eax,0x5f40a2cc
  4055fa:	a0 05 88 81 ec       	mov    al,ds:0xec818805
  4055ff:	24 60                	and    al,0x60
  405601:	09 53 6a             	or     DWORD PTR [ebx+0x6a],edx
  405604:	17                   	pop    ss
  405605:	40                   	inc    eax
  405606:	3e 03 e0             	ds add esp,eax
  405609:	63 80 0a 05 8b 4d    	arpl   WORD PTR [eax+0x4d8b050a],ax
  40560f:	08 cd                	or     ch,cl
  405611:	29 10                	sub    DWORD PTR [eax],edx
  405613:	6a 03                	push   0x3
  405615:	e8 f9 01 83 04       	call   0x4c35813
  40561a:	24 cc                	and    al,0xcc
  40561c:	55                   	push   ebp
  40561d:	60                   	pusha  
  40561e:	1f                   	pop    ds
  40561f:	8d a2 89 6a 60 50    	lea    esp,[edx+0x50606a89]
  405625:	9b                   	fwait
  405626:	40                   	inc    eax
  405627:	08 83 20 c4 0c 89    	or     BYTE PTR [ebx-0x76f33be0],al
  40562d:	85 8c 00 1a 89 8d 92 	test   DWORD PTR [eax+eax*1-0x6d7276e6],ecx
  405634:	88 a1 00 95 84 a1    	mov    BYTE PTR [ecx-0x5e7b6b00],ah
  40563a:	00 9d 80 a1 00 24    	add    BYTE PTR [ebp+0x2400a180],bl
  405640:	b5 7c                	mov    ch,0x7c
  405642:	a1 00 bd 78 a0       	mov    eax,ds:0xa078bd00
  405647:	00 66 8c             	add    BYTE PTR [esi-0x74],ah
  40564a:	24 95                	and    al,0x95
  40564c:	a4                   	movs   BYTE PTR es:[edi],BYTE PTR ds:[esi]
  40564d:	c2 00 8d             	ret    0x8d00
  405650:	98                   	cwde   
  405651:	c2 00 9d             	ret    0x9d00
  405654:	74 49                	je     0x40569f
  405656:	c2 00 85             	ret    0x8500
  405659:	70 c2                	jo     0x40561d
  40565b:	00 a5 6c c2 00 ad    	add    BYTE PTR [ebp-0x52ff3d94],ah
  405661:	42                   	inc    edx
  405662:	68 c0 00 9c 8f       	push   0x8f9c00c0
  405667:	85 9c c0 00 8b a0 45 	test   DWORD PTR [eax+eax*8+0x45a08b00],ebx
  40566e:	04 89                	add    al,0x89
  405670:	85 94 00 01 8d 01 01 	test   DWORD PTR [eax+eax*1+0x1018d01],edx
  405677:	1a a0 00 01 c7 e2    	sbb    ah,BYTE PTR [eax-0x1d38ff00]
  40567d:	0e                   	push   cs
  40567e:	e1 97                	loope  0x405617
  405680:	8b 40 fc             	mov    eax,DWORD PTR [eax-0x4]
  405683:	a0 6a 50 89 85       	mov    al,ds:0x8589506a
  405688:	90                   	nop
  405689:	a2 03 a8 21 11       	mov    ds:0x1121a803,al
  40568e:	0e                   	push   cs
  40568f:	11 20                	adc    DWORD PTR [eax],esp
  405691:	11 20                	adc    DWORD PTR [eax],esp
  405693:	06                   	push   es
  405694:	80 11 c7             	adc    BYTE PTR [ecx],0xc7
  405697:	45                   	inc    ebp
  405698:	a8 15                	test   al,0x15
  40569a:	40                   	inc    eax
  40569b:	00 00                	add    BYTE PTR [eax],al
  40569d:	40                   	inc    eax
  40569e:	c7 45 ac 21 98 89 20 	mov    DWORD PTR [ebp-0x54],0x20899821
  4056a5:	45                   	inc    ebp
  4056a6:	b4 ff                	mov    ah,0xff
  4056a8:	15 28 60 19 6a       	adc    eax,0x6a196028
  4056ad:	00 20                	add    BYTE PTR [eax],ah
  4056af:	8d 58 ff             	lea    ebx,[eax-0x1]
  4056b2:	f7 db                	neg    ebx
  4056b4:	c0 05 89 45 12 f8 23 	rol    BYTE PTR ds:0xf8124589,0x23
  4056bb:	18 1a                	sbb    BYTE PTR [edx],bl
  4056bd:	db a0 90 fe c3 ff    	(bad)  [eax-0x3c0170]
  4056c3:	44                   	inc    esp
  4056c4:	15 04 e0 03 8d       	adc    eax,0x8d03e004
  4056c9:	45                   	inc    ebp
  4056ca:	f8                   	clc    
  4056cb:	60                   	pusha  
  4056cc:	8f 00                	pop    DWORD PTR [eax]
  4056ce:	81 a2 1e 75 0c 84 db 	and    DWORD PTR [edx-0x7bf38ae2],0x800875db
  4056d5:	75 08 80 
  4056d8:	1e                   	push   ds
  4056d9:	89 20                	mov    DWORD PTR [eax],esp
  4056db:	4b                   	dec    ebx
  4056dc:	00 59 a0             	add    BYTE PTR [ecx-0x60],bl
  4056df:	2c 83                	sub    al,0x83
  4056e1:	25 fc a1 28 00       	and    eax,0x28a1fc
  4056e6:	c3                   	ret    
  4056e7:	53                   	push   ebx
  4056e8:	56                   	push   esi
  4056e9:	be c0 7d 01 10       	mov    esi,0x10017dc0
  4056ee:	02 bb 81 00 3b f3    	add    bh,BYTE PTR [ebx-0xcc4ff7f]
  4056f4:	73 19                	jae    0x40570f
  4056f6:	57                   	push   edi
  4056f7:	8b 80 3e 85 ff 74    	mov    eax,DWORD PTR [eax+0x74ff853e]
  4056fd:	0a 8b cf 44 64 00    	or     cl,BYTE PTR [ebx+0x6444cf]
  405703:	d7                   	xlat   BYTE PTR ds:[ebx]
  405704:	83 c6 04             	add    esi,0x4
  405707:	3b f3                	cmp    esi,ebx
  405709:	72 e9                	jb     0x4056f4
  40570b:	bb 40 33 61 05       	mov    ebx,0x5613340
  405710:	c8 61 05 81          	enter  0x561,0x81
  405714:	00 7d 05             	add    BYTE PTR [ebp+0x5],bh
  405717:	cc                   	int3   
  405718:	03 00                	add    eax,DWORD PTR [eax]
  40571a:	00 68 20             	add    BYTE PTR [eax+0x20],ch
  40571d:	25 00 10 64 ff       	and    eax,0xff641000
  405722:	35 01 c1 3b 8b       	xor    eax,0x8b3bc101
  405727:	44                   	inc    esp
  405728:	24 10                	and    al,0x10
  40572a:	89 6c 24 04          	mov    DWORD PTR [esp+0x4],ebp
  40572e:	10 8d 60 00 2b e0    	adc    BYTE PTR [ebp-0x1fd4ffa0],cl
  405734:	53                   	push   ebx
  405735:	56                   	push   esi
  405736:	57                   	push   edi
  405737:	06                   	push   es
  405738:	a1 e1 98 80 a4       	mov    eax,ds:0xa48098e1
  40573d:	33 c5                	xor    eax,ebp
  40573f:	50                   	push   eax
  405740:	89 65 80             	mov    DWORD PTR [ebp-0x80],esp
  405743:	e8 ff 75 f8 8b       	call   0x8c38cd47
  405748:	45                   	inc    ebp
  405749:	fc                   	cld    
  40574a:	c4 42 21             	les    eax,FWORD PTR [edx+0x21]
  40574d:	21 1a                	and    DWORD PTR [edx],ebx
  40574f:	45                   	inc    ebp
  405750:	f0 64 a3 e1 06 f2 c3 	lock mov fs:0xc3f206e1,eax
  405757:	22 c2                	and    al,dl
  405759:	23 6d 25             	and    ebp,DWORD PTR [ebp+0x25]
  40575c:	04 9c                	add    al,0x9c
  40575e:	40                   	inc    eax
  40575f:	16                   	push   ss
  405760:	83 ec 10             	sub    esp,0x10
  405763:	24 83                	and    al,0x83
  405765:	0d 10 20 07 01       	or     eax,0x1072010
  40576a:	6a 0a                	push   0xa
  40576c:	11 85 3a 0f 84 a9    	adc    DWORD PTR [ebp-0x567bf0c6],eax
  405772:	40                   	inc    eax
  405773:	23 83 65 f0 08 00    	and    eax,DWORD PTR [ebx+0x8f065]
  405779:	33 c0                	xor    eax,eax
  40577b:	00 0b                	add    BYTE PTR [ebx],cl
  40577d:	33 c9                	xor    ecx,ecx
  40577f:	8d 7d 00             	lea    edi,[ebp+0x0]
  405782:	dc 53 0f             	fcom   QWORD PTR [ebx+0xf]
  405785:	a2 8b f3 5b 89       	mov    ds:0x895bf38b,al
  40578a:	00 07                	add    BYTE PTR [edi],al
  40578c:	89 77 04             	mov    DWORD PTR [edi+0x4],esi
  40578f:	89 4f 08             	mov    DWORD PTR [edi+0x8],ecx
  405792:	33 00                	xor    eax,DWORD PTR [eax]
  405794:	c9                   	leave  
  405795:	89 57 0c             	mov    DWORD PTR [edi+0xc],edx
  405798:	8b 45 dc             	mov    eax,DWORD PTR [ebp-0x24]
  40579b:	8b 00                	mov    eax,DWORD PTR [eax]
  40579d:	7d e4                	jge    0x405783
  40579f:	89 45 f4             	mov    DWORD PTR [ebp-0xc],eax
  4057a2:	81 f7 6e 00 74 65    	xor    edi,0x6574006e
  4057a8:	6c                   	ins    BYTE PTR es:[edi],dx
  4057a9:	8b 45 e8             	mov    eax,DWORD PTR [ebp-0x18]
  4057ac:	35 69 08 6e 65       	xor    eax,0x656e0869
  4057b1:	49                   	dec    ecx
  4057b2:	80 0d 8b 45 e0 35 10 	or     BYTE PTR ds:0x35e0458b,0x10
  4057b9:	47                   	inc    edi
  4057ba:	65 6e                	outs   dx,BYTE PTR gs:[esi]
  4057bc:	75 c0                	jne    0x40577e
  4057be:	27                   	daa    
  4057bf:	33 c0                	xor    eax,eax
  4057c1:	40                   	inc    eax
  4057c2:	41                   	inc    ecx
  4057c3:	43                   	inc    ebx
  4057c4:	07                   	pop    es
  4057c5:	8d 5d dc             	lea    ebx,[ebp-0x24]
  4057c8:	89 03                	mov    DWORD PTR [ebx],eax
  4057ca:	40                   	inc    eax
  4057cb:	12 89 00 73 04 0b    	adc    cl,BYTE PTR [ecx+0xb047300]
  4057d1:	c7                   	(bad)  
  4057d2:	0b 45 f8             	or     eax,DWORD PTR [ebp-0x8]
  4057d5:	89 80 4b 08 89 53    	mov    DWORD PTR [eax+0x5389084b],eax
  4057db:	0c 75                	or     al,0x75
  4057dd:	43                   	inc    ebx
  4057de:	a0 08 00 25 f0       	mov    al,ds:0xf0250008
  4057e3:	3f                   	aas    
  4057e4:	ff 0f                	dec    DWORD PTR [edi]
  4057e6:	3d c0 06 00 01       	cmp    eax,0x10006c0
  4057eb:	00 74 23 3d          	add    BYTE PTR [ebx+eiz*1+0x3d],dh
  4057ef:	60                   	pusha  
  4057f0:	06                   	push   es
  4057f1:	02 20                	add    ah,BYTE PTR [eax]
  4057f3:	00 74 1c 3d          	add    BYTE PTR [esp+ebx*1+0x3d],dh
  4057f7:	70 c1                	jo     0x4057ba
  4057f9:	00 15 3d c0 50 06    	add    BYTE PTR ds:0x650c03d,dl
  4057ff:	03 00                	add    eax,DWORD PTR [eax]
  405801:	74 0e                	je     0x405811
  405803:	80 02 c0             	add    BYTE PTR [edx],0xc0
  405806:	00 02                	add    BYTE PTR [edx],al
  405808:	07                   	pop    es
  405809:	80 02 03             	add    BYTE PTR [edx],0x3
  40580c:	00 75 11             	add    BYTE PTR [ebp+0x11],dh
  40580f:	8b 3d 42 08 20 17    	mov    edi,DWORD PTR ds:0x17200842
  405815:	83 cf 01             	or     edi,0x1
  405818:	89 02                	mov    DWORD PTR [edx],eax
  40581a:	01 eb                	add    ebx,ebp
  40581c:	02 06                	add    al,BYTE PTR [esi]
  40581e:	03 02                	add    eax,DWORD PTR [edx]
  405820:	8b 4d e4             	mov    ecx,DWORD PTR [ebp-0x1c]
  405823:	6a 07                	push   0x7
  405825:	58                   	pop    eax
  405826:	00 89 4d fc 39 45    	add    BYTE PTR [ecx+0x4539fc4d],cl
  40582c:	f4                   	hlt    
  40582d:	7c 2f                	jl     0x40585e
  40582f:	1c 33                	sbb    al,0x33
  405831:	c9                   	leave  
  405832:	c8 0e 60 0e          	enter  0x600e,0xe
  405836:	c0 0d 8b 4d fc 81 20 	ror    BYTE PTR ds:0x81fc4d8b,0x20
  40583d:	0e                   	push   cs
  40583e:	8b 5d e0             	mov    ebx,DWORD PTR [ebp-0x20]
  405841:	f7 c3 00 a0 54 20    	test   ebx,0x2054a000
  405847:	74 0e                	je     0x405857
  405849:	83 cf 02             	or     edi,0x2
  40584c:	44                   	inc    esp
  40584d:	08 03                	or     BYTE PTR [ebx],al
  40584f:	8b 08                	mov    ecx,DWORD PTR [eax]
  405851:	5d                   	pop    ebp
  405852:	f0 a1 a1 20 83 c8    	lock mov eax,ds:0xc88320a1
  405858:	02 c7                	add    al,bh
  40585a:	96                   	xchg   esi,eax
  40585b:	05 01 23 61 43       	add    eax,0x43612301
  405860:	a3 21 02 f7 c1       	mov    ds:0xc1f70221,eax
  405865:	80 72 10 00          	xor    BYTE PTR [edx+0x10],0x0
  405869:	0f 84 93 00 02 83    	je     0x83425902
  40586f:	c8 04 87 a3          	enter  0x8704,0xa3
  405873:	03 61 dd             	add    esp,DWORD PTR [ecx-0x23]
  405876:	a6                   	cmps   BYTE PTR ds:[esi],BYTE PTR es:[edi]
  405877:	03 00                	add    eax,DWORD PTR [eax]
  405879:	08 74 79 e2          	or     BYTE PTR [ecx+edi*2-0x1e],dh
  40587d:	00 00                	add    BYTE PTR [eax],al
  40587f:	10 74 71 33          	adc    BYTE PTR [ecx+esi*2+0x33],dh
  405883:	c9                   	leave  
  405884:	0f 01 d0             	xgetbv 
  405887:	40                   	inc    eax
  405888:	89 45 ec             	mov    DWORD PTR [ebp-0x14],eax
  40588b:	89 55 f0             	mov    DWORD PTR [ebp-0x10],edx
  40588e:	01 75 4d             	add    DWORD PTR [ebp+0x4d],esi
  405891:	00 f0                	add    al,dh
  405893:	6a 06                	push   0x6
  405895:	5e                   	pop    esi
  405896:	23 c6                	and    eax,esi
  405898:	3b c6                	cmp    eax,esi
  40589a:	74 75                	je     0x405911
  40589c:	57                   	push   edi
  40589d:	c4 0b                	les    ecx,FWORD PTR [ebx]
  40589f:	08 03                	or     BYTE PTR [ebx],al
  4058a1:	08 a0 68 03 08 f6    	or     BYTE PTR [eax-0x9f7fc98],ah
  4058a7:	80 c3 20             	add    bl,0x20
  4058aa:	74 3b                	je     0x4058e7
  4058ac:	83 c8 20             	or     eax,0x20
  4058af:	c3                   	ret    
  4058b0:	02 07                	add    al,BYTE PTR [edi]
  4058b2:	41                   	inc    ecx
  4058b3:	85 c2                	test   edx,eax
  4058b5:	02 c0                	add    al,al
  4058b7:	84 03                	test   BYTE PTR [ebx],al
  4058b9:	d0 23                	shl    BYTE PTR [ebx],1
  4058bb:	d8 3b                	fdivr  DWORD PTR [ebx]
  4058bd:	68 d8 75 1e e0       	push   0xe01e75d8
  4058c2:	08 ba c1 8b 80 09    	or     BYTE PTR [edx+0x9808bc1],bh
  4058c8:	23 20                	and    esp,DWORD PTR [eax]
  4058ca:	c2 3b c2             	ret    0xc23b
  4058cd:	75 0d                	jne    0x4058dc
  4058cf:	e3 35                	jecxz  0x405906
  4058d1:	40                   	inc    eax
  4058d2:	89 86 35 21 06 a0    	mov    DWORD PTR [esi-0x5ff9decb],eax
  4058d8:	43                   	inc    ebx
  4058d9:	33 c0                	xor    eax,eax
  4058db:	c9                   	leave  
  4058dc:	c3                   	ret    
  4058dd:	c0 2c 71 60          	shr    BYTE PTR [ecx+esi*2],0x60
  4058e1:	00 39                	add    BYTE PTR [ecx],bh
  4058e3:	05 c8 00 75 41       	add    eax,0x417500c8
  4058e8:	bb 40 91 58 15       	mov    ebx,0x15589140
  4058ed:	41                   	inc    ecx
  4058ee:	91                   	xchg   ecx,eax
  4058ef:	ca 02 65             	retf   0x6502
  4058f2:	08 00                	or     BYTE PTR [eax],al
  4058f4:	75 7e                	jne    0x405974
  4058f6:	81 38 00 63 73 6d    	cmp    DWORD PTR [eax],0x6d736300
  4058fc:	e0 75                	loopne 0x405973
  4058fe:	76 83                	jbe    0x405883
  405900:	78 00                	js     0x405902
  405902:	10 03                	adc    BYTE PTR [ebx],al
  405904:	75 70                	jne    0x405976
  405906:	81 78 14 20 a0 05 93 	cmp    DWORD PTR [eax+0x14],0x9305a020
  40590d:	19 74 12 80          	sbb    DWORD PTR [edx+edx*1-0x80],esi
  405911:	00 21                	add    BYTE PTR [ecx],ah
  405913:	81 00 0a 09 80 00    	add    DWORD PTR [eax],0x80090a
  405919:	22 80 00 75 55 8b    	and    al,BYTE PTR [eax-0x74aa8b00]
  40591f:	48                   	dec    eax
  405920:	00 1c 85 c9 74 4e 8b 	add    BYTE PTR [eax*4-0x74b18b37],bl
  405927:	51                   	push   ecx
  405928:	04 10                	add    al,0x10
  40592a:	85 d2                	test   edx,edx
  40592c:	74 29                	je     0x405957
  40592e:	81 4c 52 ff 70 18 18 	or     DWORD PTR [edx+edx*2-0x1],0xe8181870
  405935:	e8 
  405936:	4a                   	dec    edx
  405937:	01 3e                	add    DWORD PTR [esi],edi
  405939:	f3 24 eb             	repz and al,0xeb
  40593c:	31 ff                	xor    edi,edi
  40593e:	80 75 0c ff          	xor    BYTE PTR [ebp+0xc],0xff
  405942:	75 ec                	jne    0x405930
  405944:	e8 43 f1 2f 82       	call   0x82704a8c
  405949:	59                   	pop    ecx
  40594a:	01 48 eb             	add    DWORD PTR [eax-0x15],ecx
  40594d:	e4 f6                	in     al,0xf6
  40594f:	01 10                	add    DWORD PTR [eax],edx
  405951:	f0 6d                	lock ins DWORD PTR es:[edi],dx
  405953:	10 40 18             	adc    BYTE PTR [eax+0x18],al
  405956:	8b 08                	mov    ecx,DWORD PTR [eax]
  405958:	d0 03                	rol    BYTE PTR [ebx],1
  40595a:	10 8b 01 40 51 8b    	adc    BYTE PTR [ebx-0x74aebfff],cl
  405960:	70 08                	jo     0x40596a
  405962:	8b ce                	mov    ecx,esi
  405964:	c4 2c d6             	les    ebp,FWORD PTR [esi+edx*8]
  405967:	03 7f 49             	add    edi,DWORD PTR [edi+0x49]
  40596a:	d0 11                	rcl    BYTE PTR [ecx],1
  40596c:	08 ff                	or     bh,bh
  40596e:	55                   	push   ebp
  40596f:	0c 5d                	or     al,0x5d
  405971:	c2 06 08             	ret    0x806
  405974:	e1 28                	loope  0x40599e
  405976:	e1 47                	loope  0x4059bf
  405978:	74 32                	je     0x4059ac
  40597a:	56                   	push   esi
  40597b:	57                   	push   edi
  40597c:	8b 40 7d             	mov    eax,DWORD PTR [eax+0x7d]
  40597f:	08 8b 37 81 3e a2    	or     BYTE PTR [ebx-0x5dc17ec9],cl
  405985:	0a 21                	or     ah,BYTE PTR [ecx]
  405987:	44                   	inc    esp
  405988:	83 7e a0 0a          	cmp    DWORD PTR [esi-0x60],0xa
  40598c:	1b 81 7e a3 0a 18    	sbb    eax,DWORD PTR [ecx+0x180aa37e]
  405992:	1b 80 00 a2 0a 0f    	sbb    eax,DWORD PTR [eax+0xf0aa200]
  405998:	80 00 a1             	add    BYTE PTR [eax],0xa1
  40599b:	0a 74 06 5f          	or     dh,BYTE PTR [esi+eax*1+0x5f]
  40599f:	14 5e                	adc    al,0x5e
  4059a1:	33 51 61             	xor    edx,DWORD PTR [ecx+0x61]
  4059a4:	e0 e0                	loopne 0x405986
  4059a6:	14 89                	adc    al,0x89
  4059a8:	70 10                	jo     0x4059ba
  4059aa:	20 8b 77 04 e8 d5    	and    BYTE PTR [ebx-0x2a17fb89],cl
  4059b0:	a2 00 14 e8 3c       	mov    ds:0x3ce81400,al
  4059b5:	15 69 00 59 70       	adc    eax,0x70590069
  4059ba:	05 a1 60 40 05       	add    eax,0x54060a1
  4059bf:	0c 8b                	or     al,0x8b
  4059c1:	00 06                	add    BYTE PTR [esi],al
  4059c3:	83 f8 fe             	cmp    eax,0xfffffffe
  4059c6:	74 0d                	je     0x4059d5
  4059c8:	8b 4e 00             	mov    ecx,DWORD PTR [esi+0x0]
  4059cb:	04 03                	add    al,0x3
  4059cd:	cf                   	iret   
  4059ce:	33 0c 38             	xor    ecx,DWORD PTR [eax+edi*1]
  4059d1:	e8 e8 82 f2 80       	call   0x8132dcbe
  4059d6:	11 46 08             	adc    DWORD PTR [esi+0x8],eax
  4059d9:	8b 4e 0c             	mov    ecx,DWORD PTR [esi+0xc]
  4059dc:	f2 00 e0             	repnz add al,ah
  4059df:	5f                   	pop    edi
  4059e0:	5e                   	pop    esi
  4059e1:	5d                   	pop    ebp
  4059e2:	e9 d5 20 01 84       	jmp    0x84417abc
  4059e7:	36 04 00             	ss add al,0x0
  4059ea:	01 22                	add    DWORD PTR [edx],esp
  4059ec:	8a 1c 53             	mov    bl,BYTE PTR [ebx+edx*2]
  4059ef:	8b 5d 08             	mov    ebx,DWORD PTR [ebp+0x8]
  4059f2:	56                   	push   esi
  4059f3:	57                   	push   edi
  4059f4:	00 c6                	add    dh,al
  4059f6:	45                   	inc    ebp
  4059f7:	ff 00                	inc    DWORD PTR [eax]
  4059f9:	ff 33                	push   DWORD PTR [ebx]
  4059fb:	c7 45 62 f4 91 21 e8 	mov    DWORD PTR [ebp+0x62],0xe82191f4
  405a02:	22 f8                	and    bh,al
  405a04:	60                   	pusha  
  405a05:	06                   	push   es
  405a06:	50                   	push   eax
  405a07:	23 0c 00             	and    ecx,DWORD PTR [eax+eax*1]
  405a0a:	8b 43 08             	mov    eax,DWORD PTR [ebx+0x8]
  405a0d:	8d 73 10             	lea    esi,[ebx+0x10]
  405a10:	33 05 21 e2 87 50    	xor    eax,DWORD PTR ds:0x5087e221
  405a16:	89 75 f0             	mov    DWORD PTR [ebp-0x10],esi
  405a19:	e0 2f                	loopne 0x405a4a
  405a1b:	e8 84 33 30 12       	call   0x12708da4
  405a20:	e0 71                	loopne 0x405a93
  405a22:	e8 3c f0 41 d0       	call   0xd0824a63
  405a27:	17                   	pop    ss
  405a28:	83 c4 00             	add    esp,0x0
  405a2b:	10 8b 7b 0c f6 40    	adc    BYTE PTR [ebx+0x40f60c7b],cl
  405a31:	04 66                	add    al,0x66
  405a33:	00 75 5a             	add    BYTE PTR [ebp+0x5a],dh
  405a36:	89 45 e4             	mov    DWORD PTR [ebp-0x1c],eax
  405a39:	8b 45 10             	mov    eax,DWORD PTR [ebp+0x10]
  405a3c:	00 89 45 e8 8d 45    	add    BYTE PTR [ecx+0x458de845],cl
  405a42:	e4 89                	in     al,0x89
  405a44:	43                   	inc    ebx
  405a45:	00 fc                	add    ah,bh
  405a47:	83 ff fe             	cmp    edi,0xfffffffe
  405a4a:	74 69                	je     0x405ab5
  405a4c:	8b 4d 00             	mov    ecx,DWORD PTR [ebp+0x0]
  405a4f:	f8                   	clc    
  405a50:	8d 47 02             	lea    eax,[edi+0x2]
  405a53:	8d 04 47             	lea    eax,[edi+eax*2]
  405a56:	8b e0                	mov    esp,eax
  405a58:	1c 81                	sbb    al,0x81
  405a5a:	8d 04 81             	lea    eax,[ecx+eax*4]
  405a5d:	f0 84 10             	lock test BYTE PTR [eax],dl
  405a60:	24 40                	and    al,0x40
  405a62:	14 20                	adc    al,0x20
  405a64:	14 8b                	adc    al,0x8b
  405a66:	d6                   	(bad)  
  405a67:	e8 19 20 21 b1       	call   0xb1617a85
  405a6c:	01 00                	add    DWORD PTR [eax],eax
  405a6e:	88 4d ff             	mov    BYTE PTR [ebp-0x1],cl
  405a71:	85 c0                	test   eax,eax
  405a73:	78 14                	js     0x405a89
  405a75:	7f 00                	jg     0x405a77
  405a77:	48                   	dec    eax
  405a78:	eb 03                	jmp    0x405a7d
  405a7a:	8a 4d ff             	mov    cl,BYTE PTR [ebp-0x1]
  405a7d:	8b fb                	mov    edi,ebx
  405a7f:	00 83 fb fe 75 c9    	add    BYTE PTR [ebx-0x368a0105],al
  405a85:	84 c9                	test   cl,cl
  405a87:	74 98                	je     0x405a21
  405a89:	2e eb 20             	cs jmp 0x405aac
  405a8c:	10 09                	adc    BYTE PTR [ecx],cl
  405a8e:	51                   	push   ecx
  405a8f:	15 eb 17 a1 04       	adc    eax,0x4a117eb
  405a94:	14 1e                	adc    al,0x1e
  405a96:	68 72 08 ba 41       	push   0x41ba0872
  405a9b:	1a 8b cb e8 4a 3c    	sbb    cl,BYTE PTR [ebx+0x3c4ae8cb]
  405aa1:	c0 03 56             	rol    BYTE PTR [ebx],0x56
  405aa4:	90                   	nop
  405aa5:	40                   	inc    eax
  405aa6:	e8 f3 00 01 83       	call   0x83415b9e
  405aab:	20 c4                	and    ah,al
  405aad:	08 8b 45 f4 c0 17    	or     BYTE PTR [ebx+0x17c0f445],cl
  405ab3:	8b e5                	mov    esp,ebp
  405ab5:	09 90 86 45 08 f4    	or     DWORD PTR [eax-0xbf7ba7a],edx
  405abb:	20 38                	and    BYTE PTR [eax],bh
  405abd:	83 3d 5c 21 10 1a 00 	cmp    DWORD PTR ds:0x1a10215c,0x0
  405ac4:	74 2f                	je     0x405af5
  405ac6:	68 71 00 e8 c8       	push   0xc8e80071
  405acb:	11 e0                	adc    eax,esp
  405acd:	04 83                	add    al,0x83
  405acf:	c4 04 10             	les    eax,FWORD PTR [eax+edx*1]
  405ad2:	23 1b                	and    ebx,DWORD PTR [ebx]
  405ad4:	8b 35 21 11 01 8b    	mov    esi,DWORD PTR ds:0x8b011121
  405ada:	ce                   	into   
  405adb:	6a 01                	push   0x1
  405add:	47                   	inc    edi
  405ade:	7e d6                	jle    0x405ab6
  405ae0:	8b 0c 75 f0 92 04 e0 	mov    ecx,DWORD PTR [esi*2-0x1ffb6d10]
  405ae7:	34 0c                	xor    al,0xc
  405ae9:	8b d0                	mov    edx,eax
  405aeb:	e8 02 b9 22 0e       	call   0xe6313f2
  405af0:	0c 39                	or     al,0x39
  405af2:	78 0c                	js     0x405b00
  405af4:	74 12                	je     0x405b08
  405af6:	81 c3 07 8b d7 8b    	add    ebx,0x8bd78b07
  405afc:	c8 e8 c2 63          	enter  0xc2e8,0x63
  405b00:	01 41 c1             	add    DWORD PTR [ecx-0x3f],eax
  405b03:	07                   	pop    es
  405b04:	89 58 0c             	mov    DWORD PTR [eax+0xc],ebx
  405b07:	e8 73 f0 07 8b       	call   0x8b484b7f
  405b0c:	04 4d                	add    al,0x4d
  405b0e:	ec                   	in     al,dx
  405b0f:	81 03 d6 8b 49 08    	add    DWORD PTR [ebx],0x8498bd6
  405b15:	e8 2e 63 e0 01       	call   0x220be48
  405b1a:	d1 15 72 05 38 93    	rcl    DWORD PTR ds:0x93380572,1
  405b20:	64 11 56 20          	adc    DWORD PTR fs:[esi+0x20],edx
  405b24:	8b 30                	mov    esi,DWORD PTR [eax]
  405b26:	50                   	push   eax
  405b27:	e8 dd 50 81 8b       	call   0x8bc1ac09
  405b2c:	c6                   	(bad)  
  405b2d:	ca 59 b0             	retf   0xb059
  405b30:	7a f1                	jp     0x405b23
  405b32:	90                   	nop
  405b33:	75 e8                	jne    0x405b1d
  405b35:	91                   	xchg   ecx,eax
  405b36:	80 02 15             	add    BYTE PTR [edx],0x15
  405b39:	8a b6 9a 50 37 12    	mov    dh,BYTE PTR [esi+0x1237509a]
  405b3f:	8a b8 61 8e 12 8a    	mov    bh,BYTE PTR [eax-0x75ed719f]
  405b45:	f5                   	cmc    
  405b46:	c0 18 e3             	rcr    BYTE PTR [eax],0xe3
  405b49:	f0 4a                	lock dec edx
  405b4b:	01 2f                	add    DWORD PTR [edi],ebp
  405b4d:	00 e8                	add    al,ch
  405b4f:	a4                   	movs   BYTE PTR es:[edi],BYTE PTR ds:[esi]
  405b50:	c0 00 e0             	rol    BYTE PTR [eax],0xe0
  405b53:	6a 52                	push   0x52
  405b55:	6d                   	ins    DWORD PTR es:[edi],dx
  405b56:	91                   	xchg   ecx,eax
  405b57:	91                   	xchg   ecx,eax
  405b58:	6e                   	outs   dx,BYTE PTR ds:[esi]
  405b59:	0a e8                	or     ch,al
  405b5b:	9b                   	fwait
  405b5c:	10 03                	adc    BYTE PTR [ebx],al
  405b5e:	e8 8a d0 02 39       	call   0x39432bed
  405b63:	41                   	inc    ecx
  405b64:	6c                   	ins    BYTE PTR es:[edi],dx
  405b65:	e8 8d d0 00 e0       	call   0xe0412bf7
  405b6a:	01 f8                	add    eax,edi
  405b6c:	1d 8b 4c 80 24       	sbb    eax,0x24804c8b
  405b71:	0c 0f                	or     al,0xf
  405b73:	b6 44                	mov    dh,0x44
  405b75:	24 08                	and    al,0x8
  405b77:	30 0b                	xor    BYTE PTR [ebx],cl
  405b79:	00 7c 24 04          	add    BYTE PTR [esp+0x4],bh
  405b7d:	85 c9                	test   ecx,ecx
  405b7f:	0f 84 3c 11 40 04    	je     0x4806cc1
  405b85:	69 c0 01 00 00 83    	imul   eax,eax,0x83000001
  405b8b:	f9                   	stc    
  405b8c:	20 88 0f 86 df a0    	and    BYTE PTR [eax-0x5f2079f1],cl
  405b92:	15 81 f9 80 50       	adc    eax,0x5080f981
  405b97:	00 48 0f             	add    BYTE PTR [eax+0xf],cl
  405b9a:	82 8b 51 00 ba 25 01 	or     BYTE PTR [ebx+0x25ba0051],0x1
  405ba1:	43                   	inc    ebx
  405ba2:	01 10                	add    DWORD PTR [eax],edx
  405ba4:	73 09                	jae    0x405baf
  405ba6:	f3 aa                	rep stos BYTE PTR es:[edi],al
  405ba8:	10 58 04             	adc    BYTE PTR [eax+0x4],bl
  405bab:	8b fa                	mov    edi,edx
  405bad:	46                   	inc    esi
  405bae:	c3                   	ret    
  405baf:	20 01                	and    BYTE PTR [ecx],al
  405bb1:	f2 53                	repnz push ebx
  405bb3:	0f 83 b2 00 02 66    	jae    0x66425c6b
  405bb9:	00 0f                	add    BYTE PTR [edi],cl
  405bbb:	6e                   	outs   dx,BYTE PTR ds:[esi]
  405bbc:	c0 66 0f 70          	shl    BYTE PTR [esi+0xf],0x70
  405bc0:	c0 00 00             	rol    BYTE PTR [eax],0x0
  405bc3:	03 cf                	add    ecx,edi
  405bc5:	0f 11 07             	movups XMMWORD PTR [edi],xmm0
  405bc8:	83 c7 10             	add    edi,0x10
  405bcb:	20 83 e7 f0 2b cf    	and    BYTE PTR [ebx-0x30d40f19],al
  405bd1:	23 04 76             	and    eax,DWORD PTR [esi+esi*2]
  405bd4:	4c                   	dec    esp
  405bd5:	18 8d a4 24 c1 1a    	sbb    BYTE PTR [ebp+0x1ac124a4],cl
  405bdb:	64 00 90 66 0f a4 7f 	add    BYTE PTR fs:[eax+0x7fa40f66],dl
  405be2:	07                   	pop    es
  405be3:	30 00                	xor    BYTE PTR [eax],al
  405be5:	47                   	inc    edi
  405be6:	10 41 00             	adc    BYTE PTR [ecx+0x0],al
  405be9:	20 41 00             	and    BYTE PTR [ecx+0x0],al
  405bec:	aa                   	stos   BYTE PTR es:[edi],al
  405bed:	30 41 00             	xor    BYTE PTR [ecx+0x0],al
  405bf0:	40                   	inc    eax
  405bf1:	41                   	inc    ecx
  405bf2:	00 50 41             	add    BYTE PTR [eax+0x41],dl
